

Microchip MPLAB XC8 Assembler V2.41 build 20230208172133 
                                                                                               Tue Jul 25 22:03:07 2023

Microchip MPLAB XC8 C Compiler v2.41 (Free license) build 20230208172133 Og1 
     1                           	processor	18F4620
     2                           	fnconf	rparam,??,?,0
     3                           	pagewidth 120
     4                           	opt	flic
     5                           	psect	idataCOMRAM,global,class=CODE,delta=1,noexec
     6                           	psect	idataBANK0,global,class=CODE,delta=1,noexec
     7                           	psect	smallconst,global,reloc=2,class=SMALLCONST,delta=1,noexec
     8                           	psect	cinit,global,reloc=2,class=CODE,delta=1
     9                           	psect	bssCOMRAM,global,class=COMRAM,space=1,delta=1,lowdata,noexec
    10                           	psect	dataCOMRAM,global,class=COMRAM,space=1,delta=1,lowdata,noexec
    11                           	psect	bssBANK0,global,class=BANK0,space=1,delta=1,lowdata,noexec
    12                           	psect	dataBANK0,global,class=BANK0,space=1,delta=1,lowdata,noexec
    13                           	psect	cstackBANK1,global,class=BANK1,space=1,delta=1,lowdata,noexec
    14                           	psect	cstackBANK0,global,class=BANK0,space=1,delta=1,lowdata,noexec
    15                           	psect	cstackCOMRAM,global,class=COMRAM,space=1,delta=1,lowdata,noexec
    16                           	psect	text0,global,reloc=2,class=CODE,delta=1
    17                           	psect	text1,global,reloc=2,class=CODE,delta=1
    18                           	psect	text2,global,reloc=2,class=CODE,delta=1
    19                           	psect	text3,global,reloc=2,class=CODE,delta=1
    20                           	psect	text4,global,reloc=2,class=CODE,delta=1,group=1
    21                           	psect	text5,global,reloc=2,class=CODE,delta=1,group=1
    22                           	psect	text6,global,reloc=2,class=CODE,delta=1,group=1
    23                           	psect	text7,global,reloc=2,class=CODE,delta=1,group=1
    24                           	psect	text8,global,reloc=2,class=CODE,delta=1
    25                           	psect	text9,global,reloc=2,class=CODE,delta=1
    26                           	psect	text10,global,reloc=2,class=CODE,delta=1
    27                           	psect	text11,global,reloc=2,class=CODE,delta=1
    28                           	psect	text12,global,reloc=2,class=CODE,delta=1
    29                           	psect	text13,global,reloc=2,class=CODE,delta=1
    30                           	psect	text14,global,reloc=2,class=CODE,delta=1
    31                           	psect	text15,global,reloc=2,class=CODE,delta=1
    32                           	psect	text16,global,reloc=2,class=CODE,delta=1
    33                           	psect	text17,global,reloc=2,class=CODE,delta=1
    34                           	psect	text18,global,reloc=2,class=CODE,delta=1
    35                           	psect	text19,global,reloc=2,class=CODE,delta=1
    36                           	psect	text20,global,reloc=2,class=CODE,delta=1
    37                           	psect	text21,global,reloc=2,class=CODE,delta=1
    38                           	psect	text22,global,reloc=2,class=CODE,delta=1
    39                           	psect	intcode,global,reloc=2,class=CODE,delta=1
    40                           	psect	intcode_body,global,reloc=2,class=CODE,delta=1
    41                           	psect	text24,global,reloc=2,class=CODE,delta=1
    42                           	psect	text25,global,reloc=2,class=CODE,delta=1
    43                           	psect	text26,global,reloc=2,class=CODE,delta=1
    44                           	psect	text27,global,reloc=2,class=CODE,delta=1
    45                           	psect	text28,global,reloc=2,class=CODE,delta=1
    46                           	psect	text29,global,reloc=2,class=CODE,delta=1
    47                           	psect	text30,global,reloc=2,class=CODE,delta=1
    48                           	psect	text31,global,reloc=2,class=CODE,delta=1
    49                           	psect	text32,global,reloc=2,class=CODE,delta=1
    50                           	psect	text33,global,reloc=2,class=CODE,delta=1
    51                           	psect	text34,global,reloc=2,class=CODE,delta=1
    52                           	psect	text35,global,reloc=2,class=CODE,delta=1
    53                           	psect	text36,global,reloc=2,class=CODE,delta=1
    54                           	psect	text37,global,reloc=2,class=CODE,delta=1
    55                           	psect	text38,global,reloc=2,class=CODE,delta=1
    56                           	psect	text39,global,reloc=2,class=CODE,delta=1
    57                           	psect	text40,global,reloc=2,class=CODE,delta=1
    58                           	psect	text41,global,reloc=2,class=CODE,delta=1
    59                           	psect	text42,global,reloc=2,class=CODE,delta=1
    60                           	psect	text43,global,reloc=2,class=CODE,delta=1
    61                           	psect	text44,global,reloc=2,class=CODE,delta=1
    62                           	psect	text45,global,reloc=2,class=CODE,delta=1
    63                           	psect	text46,global,reloc=2,class=CODE,delta=1
    64                           	psect	text47,global,reloc=2,class=CODE,delta=1
    65                           	psect	text48,global,reloc=2,class=CODE,delta=1
    66                           	psect	text49,global,reloc=2,class=CODE,delta=1
    67                           	psect	text50,global,reloc=2,class=CODE,delta=1
    68                           	psect	text51,global,reloc=2,class=CODE,delta=1
    69                           	psect	text52,global,reloc=2,class=CODE,delta=1
    70                           	psect	intsave_regs,global,class=BIGRAM,space=1,delta=1,noexec
    71                           	psect	text53,global,reloc=2,class=CODE,delta=1
    72                           	psect	rparam,global,class=COMRAM,space=1,delta=1,noexec
    73                           	psect	temp,global,ovrld,common,class=COMRAM,space=1,delta=1
    74                           	psect	idloc,global,abs,ovrld,class=IDLOC,space=5,delta=1,noexec
    75                           	psect	config,global,abs,ovrld,class=CONFIG,space=4,delta=1,noexec
    76   000000                     
    77                           ; Generated 09/02/2023 GMT
    78                           ; 
    79                           ; Copyright © 2023, Microchip Technology Inc. and its subsidiaries ("Microchip")
    80                           ; All rights reserved.
    81                           ; 
    82                           ; This software is developed by Microchip Technology Inc. and its subsidiaries ("Microch
      +                          ip").
    83                           ; 
    84                           ; Redistribution and use in source and binary forms, with or without modification, are
    85                           ; permitted provided that the following conditions are met:
    86                           ; 
    87                           ;     1. Redistributions of source code must retain the above copyright notice, this lis
      +                          t of
    88                           ;        conditions and the following disclaimer.
    89                           ; 
    90                           ;     2. Redistributions in binary form must reproduce the above copyright notice, this 
      +                          list
    91                           ;        of conditions and the following disclaimer in the documentation and/or other
    92                           ;        materials provided with the distribution. Publication is not required when
    93                           ;        this file is used in an embedded application.
    94                           ; 
    95                           ;     3. Microchip's name may not be used to endorse or promote products derived from th
      +                          is
    96                           ;        software without specific prior written permission.
    97                           ; 
    98                           ; THIS SOFTWARE IS PROVIDED BY MICROCHIP "AS IS" AND ANY EXPRESS OR IMPLIED WARRANTIES,
    99                           ; INCLUDING, BUT NOT LIMITED TO, THE IMPLIED WARRANTIES OF MERCHANTABILITY AND FITNESS F
      +                          OR
   100                           ; PURPOSE ARE DISCLAIMED.  IN NO EVENT SHALL MICROCHIP BE LIABLE FOR ANY DIRECT, INDIREC
      +                          T,
   101                           ; INCIDENTAL, SPECIAL, EXEMPLARY, OR CONSEQUENTIAL DAMAGES (INCLUDING BUT NOT LIMITED TO
   102                           ; PROCUREMENT OF SUBSTITUTE GOODS OR SERVICES; LOSS OF USE, DATA OR PROFITS; OR BUSINESS
   103                           ; INTERRUPTION) HOWSOEVER CAUSED AND ON ANY THEORY OF LIABILITY, WHETHER IN CONTRACT, ST
      +                          RICT
   104                           ; LIABILITY, OR TORT (INCLUDING NEGLIGENCE OR OTHERWISE) ARISING IN ANY WAY OUT OF THE U
      +                          SE OF
   105                           ; THIS SOFTWARE, EVEN IF ADVISED OF THE POSSIBILITY OF SUCH DAMAGE.
   106                           ; 
   107                           ; 
   108                           ; Code-generator required, PIC18F4620 Definitions
   109                           ; 
   110                           ; SFR Addresses
   111   000000                     
   112                           	psect	idataCOMRAM
   113   003406                     __pidataCOMRAM:
   114                           	callstack 0
   115                           
   116                           ;initializer for _RB7_Flag
   117   003406  01                 	db	1
   118                           
   119                           ;initializer for _RB6_Flag
   120   003407  01                 	db	1
   121                           
   122                           ;initializer for _RB5_Flag
   123   003408  01                 	db	1
   124                           
   125                           ;initializer for _RB4_Flag
   126   003409  01                 	db	1
   127                           
   128                           ;initializer for _led2
   129   00340A  12                 	db	18
   130                           
   131                           ;initializer for _led1
   132   00340B  03                 	db	3
   133                           
   134                           	psect	idataBANK0
   135   003272                     __pidataBANK0:
   136                           	callstack 0
   137                           
   138                           ;initializer for _port_registers
   139   003272  80                 	db	128
   140   003273  0F                 	db	15
   141   003274  81                 	db	129
   142   003275  0F                 	db	15
   143   003276  82                 	db	130
   144   003277  0F                 	db	15
   145   003278  83                 	db	131
   146   003279  0F                 	db	15
   147   00327A  84                 	db	132
   148   00327B  0F                 	db	15
   149                           
   150                           ;initializer for _lat_registers
   151   00327C  89                 	db	137
   152   00327D  0F                 	db	15
   153   00327E  8A                 	db	138
   154   00327F  0F                 	db	15
   155   003280  8B                 	db	139
   156   003281  0F                 	db	15
   157   003282  8C                 	db	140
   158   003283  0F                 	db	15
   159   003284  8D                 	db	141
   160   003285  0F                 	db	15
   161                           
   162                           ;initializer for _tris_registers
   163   003286  92                 	db	146
   164   003287  0F                 	db	15
   165   003288  93                 	db	147
   166   003289  0F                 	db	15
   167   00328A  94                 	db	148
   168   00328B  0F                 	db	15
   169   00328C  95                 	db	149
   170   00328D  0F                 	db	15
   171   00328E  96                 	db	150
   172   00328F  0F                 	db	15
   173                           
   174                           ;initializer for _lcd_2
   175   003290  32                 	db	50
   176   003291  3A                 	db	58
   177   003292  03                 	db	3
   178   003293  0B                 	db	11
   179   003294  13                 	db	19
   180   003295  1B                 	db	27
   181   003296  23                 	db	35
   182   003297  2B                 	db	43
   183   003298  33                 	db	51
   184   003299  3B                 	db	59
   185                           
   186                           ;initializer for _lcd_1
   187   00329A  02                 	db	2
   188   00329B  0A                 	db	10
   189   00329C  12                 	db	18
   190   00329D  1A                 	db	26
   191   00329E  22                 	db	34
   192   00329F  2A                 	db	42
   193                           
   194                           	psect	smallconst
   195   001000                     __psmallconst:
   196                           	callstack 0
   197   001000  00                 	db	0
   198   001001                     _btn_values:
   199                           	callstack 0
   200   001001  37                 	db	55
   201   001002  38                 	db	56
   202   001003  39                 	db	57
   203   001004  2F                 	db	47
   204   001005  34                 	db	52
   205   001006  35                 	db	53
   206   001007  36                 	db	54
   207   001008  2A                 	db	42
   208   001009  31                 	db	49
   209   00100A  32                 	db	50
   210   00100B  33                 	db	51
   211   00100C  2D                 	db	45
   212   00100D  23                 	db	35
   213   00100E  30                 	db	48
   214   00100F  3D                 	db	61
   215   001010  2B                 	db	43
   216   001011                     __end_of_btn_values:
   217                           	callstack 0
   218   000000                     _SPBRGH	set	4016
   219   000000                     _SPBRG	set	4015
   220   000000                     _TXREG	set	4013
   221   000000                     _TXSTAbits	set	4012
   222   000000                     _RCREG	set	4014
   223   000000                     _RCSTAbits	set	4011
   224   000000                     _TMR3L	set	4018
   225   000000                     _TMR3H	set	4019
   226   000000                     _TMR1L	set	4046
   227   000000                     _TMR1H	set	4047
   228   000000                     _TMR0L	set	4054
   229   000000                     _TMR0H	set	4055
   230   000000                     _INTCON2bits	set	4081
   231   000000                     _SSPSTATbits	set	4039
   232   000000                     _SSPADD	set	4040
   233   000000                     _SSPCON2bits	set	4037
   234   000000                     _SSPCON1bits	set	4038
   235   000000                     _EECON2	set	4007
   236   000000                     _CCPR2H	set	4028
   237   000000                     _CCPR2L	set	4027
   238   000000                     _CCPR1H	set	4031
   239   000000                     _CCPR1L	set	4030
   240   000000                     _ADCON1bits	set	4033
   241   000000                     _ADRESL	set	4035
   242   000000                     _ADRESH	set	4036
   243   000000                     _INTCONbits	set	4082
   244   000000                     _TRISD	set	3989
   245   000000                     _TRISC	set	3988
   246   000000                     _TRISB	set	3987
   247   000000                     _TRISE	set	3990
   248   000000                     _PORTBbits	set	3969
   249   000000                     _TRISCbits	set	3988
   250   000000                     _PIE1bits	set	3997
   251   000000                     _ADCON2bits	set	4032
   252   000000                     _ADCON0bits	set	4034
   253   000000                     _PORTE	set	3972
   254   000000                     _PORTD	set	3971
   255   000000                     _PORTC	set	3970
   256   000000                     _PORTB	set	3969
   257   000000                     _PORTA	set	3968
   258   000000                     _LATA	set	3977
   259   000000                     _TRISA	set	3986
   260   000000                     _PIE2bits	set	4000
   261   000000                     _CCP2CONbits	set	4026
   262   000000                     _CCP1CONbits	set	4029
   263   000000                     _PIR1bits	set	3998
   264   000000                     _EECON1bits	set	4006
   265   000000                     _EEDATA	set	4008
   266   000000                     _EEADR	set	4009
   267   000000                     _EEADRH	set	4010
   268   000000                     _T3CONbits	set	4017
   269   000000                     _PIR2bits	set	4001
   270   000000                     _LATE	set	3981
   271   000000                     _LATD	set	3980
   272   000000                     _LATC	set	3979
   273   000000                     _LATB	set	3978
   274   000000                     _TMR2	set	4044
   275   000000                     _T2CONbits	set	4042
   276   000000                     _T1CONbits	set	4045
   277   000000                     _T0CONbits	set	4053
   278   000000                     _INTCON3bits	set	4080
   279   000000                     _SSPBUF	set	4041
   280   000000                     _BAUDCONbits	set	4024
   281   001011                     STR_5:
   282   001011  4C                 	db	76	;'L'
   283   001012  65                 	db	101	;'e'
   284   001013  64                 	db	100	;'d'
   285   001014  31                 	db	49	;'1'
   286   001015  20                 	db	32
   287   001016  4F                 	db	79	;'O'
   288   001017  66                 	db	102	;'f'
   289   001018  66                 	db	102	;'f'
   290   001019  0D                 	db	13
   291   00101A  00                 	db	0
   292   00101B                     STR_7:
   293   00101B  4C                 	db	76	;'L'
   294   00101C  65                 	db	101	;'e'
   295   00101D  64                 	db	100	;'d'
   296   00101E  32                 	db	50	;'2'
   297   00101F  20                 	db	32
   298   001020  4F                 	db	79	;'O'
   299   001021  66                 	db	102	;'f'
   300   001022  66                 	db	102	;'f'
   301   001023  0D                 	db	13
   302   001024  00                 	db	0
   303   001025                     STR_4:
   304   001025  4C                 	db	76	;'L'
   305   001026  65                 	db	101	;'e'
   306   001027  64                 	db	100	;'d'
   307   001028  31                 	db	49	;'1'
   308   001029  20                 	db	32
   309   00102A  4F                 	db	79	;'O'
   310   00102B  6E                 	db	110	;'n'
   311   00102C  0D                 	db	13
   312   00102D  00                 	db	0
   313   00102E                     STR_6:
   314   00102E  4C                 	db	76	;'L'
   315   00102F  65                 	db	101	;'e'
   316   001030  64                 	db	100	;'d'
   317   001031  32                 	db	50	;'2'
   318   001032  20                 	db	32
   319   001033  4F                 	db	79	;'O'
   320   001034  6E                 	db	110	;'n'
   321   001035  0D                 	db	13
   322   001036  00                 	db	0
   323   001037                     STR_1:
   324   001037  25                 	db	37
   325   001038  69                 	db	105	;'i'
   326   001039  00                 	db	0
   327   00103A  00                 	db	0	; dummy byte at the end
   328   000000                     
   329                           ; #config settings
   330                           
   331                           	psect	cinit
   332   0030AA                     __pcinit:
   333                           	callstack 0
   334   0030AA                     start_initialization:
   335                           	callstack 0
   336   0030AA                     __initialization:
   337                           	callstack 0
   338                           
   339                           ; Initialize objects allocated to BANK0 (46 bytes)
   340                           ; load TBLPTR registers with __pidataBANK0
   341   0030AA  0E72               	movlw	low __pidataBANK0
   342   0030AC  6EF6               	movwf	tblptrl,c
   343   0030AE  0E32               	movlw	high __pidataBANK0
   344   0030B0  6EF7               	movwf	tblptrh,c
   345   0030B2  0E00               	movlw	low (__pidataBANK0 shr (0+16))
   346   0030B4  6EF8               	movwf	tblptru,c
   347   0030B6  EE00  F0B8         	lfsr	0,__pdataBANK0
   348   0030BA  EE10 F02E          	lfsr	1,46
   349   0030BE                     copy_data0:
   350   0030BE  0009               	tblrd		*+
   351   0030C0  CFF5 FFEE          	movff	tablat,postinc0
   352   0030C4  50E5               	movf	postdec1,w,c
   353   0030C6  50E1               	movf	fsr1l,w,c
   354   0030C8  E1FA               	bnz	copy_data0
   355                           
   356                           ; Initialize objects allocated to COMRAM (6 bytes)
   357                           ; load TBLPTR registers with __pidataCOMRAM
   358   0030CA  0E06               	movlw	low __pidataCOMRAM
   359   0030CC  6EF6               	movwf	tblptrl,c
   360   0030CE  0E34               	movlw	high __pidataCOMRAM
   361   0030D0  6EF7               	movwf	tblptrh,c
   362   0030D2  0E00               	movlw	low (__pidataCOMRAM shr (0+16))
   363   0030D4  6EF8               	movwf	tblptru,c
   364   0030D6  EE00  F060         	lfsr	0,__pdataCOMRAM
   365   0030DA  EE10 F006          	lfsr	1,6
   366   0030DE                     copy_data1:
   367   0030DE  0009               	tblrd		*+
   368   0030E0  CFF5 FFEE          	movff	tablat,postinc0
   369   0030E4  50E5               	movf	postdec1,w,c
   370   0030E6  50E1               	movf	fsr1l,w,c
   371   0030E8  E1FA               	bnz	copy_data1
   372                           
   373                           ; Clear objects allocated to BANK0 (56 bytes)
   374   0030EA  EE00  F080         	lfsr	0,__pbssBANK0
   375   0030EE  0E38               	movlw	56
   376   0030F0                     clear_0:
   377   0030F0  6AEE               	clrf	postinc0,c
   378   0030F2  06E8               	decf	wreg,f,c
   379   0030F4  E1FD               	bnz	clear_0
   380                           
   381                           ; Clear objects allocated to COMRAM (25 bytes)
   382   0030F6  EE00  F047         	lfsr	0,__pbssCOMRAM
   383   0030FA  0E19               	movlw	25
   384   0030FC                     clear_1:
   385   0030FC  6AEE               	clrf	postinc0,c
   386   0030FE  06E8               	decf	wreg,f,c
   387   003100  E1FD               	bnz	clear_1
   388   003102                     end_of_initialization:
   389                           	callstack 0
   390   003102                     __end_of__initialization:
   391                           	callstack 0
   392   003102  9066               	bcf	int$flags,0,c	;clear compiler interrupt flag (level 1)
   393   003104  9266               	bcf	int$flags,1,c	;clear compiler interrupt flag (level 2)
   394   003106  0100               	movlb	0
   395   003108  EF7C  F019         	goto	_main	;jump to C main() function
   396                           
   397                           	psect	bssCOMRAM
   398   000047                     __pbssCOMRAM:
   399                           	callstack 0
   400   000047                     _USART_OverrunErrorHandler:
   401                           	callstack 0
   402   000047                     	ds	2
   403   000049                     _USART_FramingErrorHandler:
   404                           	callstack 0
   405   000049                     	ds	2
   406   00004B                     _USART_RxDefaultInterruptHandler@hal_usart$F3870:
   407                           	callstack 0
   408   00004B                     	ds	2
   409   00004D                     _USART_TxDefaultInterruptHandler@hal_usart$F3869:
   410                           	callstack 0
   411   00004D                     	ds	2
   412   00004F                     _timer3_preload:
   413                           	callstack 0
   414   00004F                     	ds	2
   415   000051                     _timer1_preload:
   416                           	callstack 0
   417   000051                     	ds	2
   418   000053                     _timer0_preload:
   419                           	callstack 0
   420   000053                     	ds	2
   421   000055                     _ADC_InterruptHandler:
   422                           	callstack 0
   423   000055                     	ds	2
   424   000057                     _timer2_preload:
   425                           	callstack 0
   426   000057                     	ds	1
   427   000058                     relay_turn_off@F3052:
   428                           	callstack 0
   429   000058                     	ds	1
   430   000059                     relay_turn_on@F3047:
   431                           	callstack 0
   432   000059                     	ds	1
   433   00005A                     relay_initialize@F3042:
   434                           	callstack 0
   435   00005A                     	ds	1
   436   00005B                     led_turn_toggle@F3063:
   437                           	callstack 0
   438   00005B                     	ds	1
   439   00005C                     led_turn_off@F3058:
   440                           	callstack 0
   441   00005C                     	ds	1
   442   00005D                     led_turn_on@F3053:
   443                           	callstack 0
   444   00005D                     	ds	1
   445   00005E                     led_initialize@F3048:
   446                           	callstack 0
   447   00005E                     	ds	1
   448   00005F                     _receive_usart_data:
   449                           	callstack 0
   450   00005F                     	ds	1
   451                           
   452                           	psect	dataCOMRAM
   453   000060                     __pdataCOMRAM:
   454                           	callstack 0
   455   000060                     _RB7_Flag:
   456                           	callstack 0
   457   000060                     	ds	1
   458   000061                     _RB6_Flag:
   459                           	callstack 0
   460   000061                     	ds	1
   461   000062                     _RB5_Flag:
   462                           	callstack 0
   463   000062                     	ds	1
   464   000063                     _RB4_Flag:
   465                           	callstack 0
   466   000063                     	ds	1
   467   000064                     _led2:
   468                           	callstack 0
   469   000064                     	ds	1
   470   000065                     _led1:
   471                           	callstack 0
   472   000065                     	ds	1
   473                           
   474                           	psect	bssBANK0
   475   000080                     __pbssBANK0:
   476                           	callstack 0
   477   000080                     	ds	6
   478   000086                     _valid_usart_rx:
   479                           	callstack 0
   480   000086                     	ds	4
   481   00008A                     _valid_usart_tx:
   482                           	callstack 0
   483   00008A                     	ds	4
   484   00008E                     _TMR3_InterruptHandler:
   485                           	callstack 0
   486   00008E                     	ds	2
   487   000090                     _TMR2_InterruptHandler:
   488                           	callstack 0
   489   000090                     	ds	2
   490   000092                     _TMR1_InterruptHandler:
   491                           	callstack 0
   492   000092                     	ds	2
   493   000094                     _TMR0_InterruptHandler:
   494                           	callstack 0
   495   000094                     	ds	2
   496   000096                     _RB7_InterruptHandler_LOW:
   497                           	callstack 0
   498   000096                     	ds	2
   499   000098                     _RB7_InterruptHandler_HIGH:
   500                           	callstack 0
   501   000098                     	ds	2
   502   00009A                     _RB6_InterruptHandler_LOW:
   503                           	callstack 0
   504   00009A                     	ds	2
   505   00009C                     _RB6_InterruptHandler_HIGH:
   506                           	callstack 0
   507   00009C                     	ds	2
   508   00009E                     _RB5_InterruptHandler_LOW:
   509                           	callstack 0
   510   00009E                     	ds	2
   511   0000A0                     _RB5_InterruptHandler_HIGH:
   512                           	callstack 0
   513   0000A0                     	ds	2
   514   0000A2                     _RB4_InterruptHandler_LOW:
   515                           	callstack 0
   516   0000A2                     	ds	2
   517   0000A4                     _RB4_InterruptHandler_HIGH:
   518                           	callstack 0
   519   0000A4                     	ds	2
   520   0000A6                     _INT2_InterruptHandler:
   521                           	callstack 0
   522   0000A6                     	ds	2
   523   0000A8                     _INT1_InterruptHandler:
   524                           	callstack 0
   525   0000A8                     	ds	2
   526   0000AA                     _INT0_InterruptHandler:
   527                           	callstack 0
   528   0000AA                     	ds	2
   529   0000AC                     _MSSP_I2C_Report_Receive_Overflow_InterruptHandler:
   530                           	callstack 0
   531   0000AC                     	ds	2
   532   0000AE                     _MSSP_I2C_Report_Write_Collision_InterruptHandler:
   533                           	callstack 0
   534   0000AE                     	ds	2
   535   0000B0                     _MSSP_I2C_DefaultInterruptHandler:
   536                           	callstack 0
   537   0000B0                     	ds	2
   538   0000B2                     CCP_Set_Compare_Mode_Value@F3106:
   539                           	callstack 0
   540   0000B2                     	ds	2
   541   0000B4                     _CCP2_InterruptHandler:
   542                           	callstack 0
   543   0000B4                     	ds	2
   544   0000B6                     _CCP1_InterruptHandler:
   545                           	callstack 0
   546   0000B6                     	ds	2
   547                           
   548                           	psect	dataBANK0
   549   0000B8                     __pdataBANK0:
   550                           	callstack 0
   551   0000B8                     _port_registers:
   552                           	callstack 0
   553   0000B8                     	ds	10
   554   0000C2                     _lat_registers:
   555                           	callstack 0
   556   0000C2                     	ds	10
   557   0000CC                     _tris_registers:
   558                           	callstack 0
   559   0000CC                     	ds	10
   560   0000D6                     _lcd_2:
   561                           	callstack 0
   562   0000D6                     	ds	10
   563   0000E0                     _lcd_1:
   564                           	callstack 0
   565   0000E0                     	ds	6
   566                           
   567                           	psect	cstackBANK1
   568   000100                     __pcstackBANK1:
   569                           	callstack 0
   570   000100                     usart_module_int_init@usart_obj:
   571                           	callstack 0
   572                           
   573                           ; 18 bytes @ 0x0
   574   000100                     	ds	18
   575                           
   576                           	psect	cstackBANK0
   577   0000E6                     __pcstackBANK0:
   578                           	callstack 0
   579   0000E6                     ?___fladd:
   580                           	callstack 0
   581   0000E6                     ___fladd@b:
   582                           	callstack 0
   583                           
   584                           ; 4 bytes @ 0x0
   585   0000E6                     	ds	4
   586   0000EA                     ___fladd@a:
   587                           	callstack 0
   588                           
   589                           ; 4 bytes @ 0x4
   590   0000EA                     	ds	4
   591   0000EE                     ___fladd@signs:
   592                           	callstack 0
   593                           
   594                           ; 1 bytes @ 0x8
   595   0000EE                     	ds	1
   596   0000EF                     ___fladd@aexp:
   597                           	callstack 0
   598                           
   599                           ; 1 bytes @ 0x9
   600   0000EF                     	ds	1
   601   0000F0                     ___fladd@bexp:
   602                           	callstack 0
   603                           
   604                           ; 1 bytes @ 0xA
   605   0000F0                     	ds	1
   606   0000F1                     ___fladd@grs:
   607                           	callstack 0
   608                           
   609                           ; 1 bytes @ 0xB
   610   0000F1                     	ds	1
   611   0000F2                     ??_USART_Baud_Rate_Calculation:
   612                           
   613                           ; 1 bytes @ 0xC
   614   0000F2                     	ds	2
   615   0000F4                     USART_Baud_Rate_Calculation@Baud_Rate_Temp_Value:
   616                           	callstack 0
   617                           
   618                           ; 4 bytes @ 0xE
   619   0000F4                     	ds	4
   620   0000F8                     _USART_Baud_Rate_Calculation$5135:
   621                           	callstack 0
   622                           
   623                           ; 4 bytes @ 0x12
   624   0000F8                     	ds	4
   625   0000FC                     USART_Asynchronous_Initialize@_usart:
   626                           	callstack 0
   627                           
   628                           ; 2 bytes @ 0x16
   629   0000FC                     	ds	2
   630   0000FE                     USART_Asynchronous_Initialize@ret:
   631                           	callstack 0
   632                           
   633                           ; 1 bytes @ 0x18
   634   0000FE                     	ds	1
   635                           
   636                           	psect	cstackCOMRAM
   637   000001                     __pcstackCOMRAM:
   638                           	callstack 0
   639   000001                     RB4_ISR@RB4_Source:
   640                           	callstack 0
   641   000001                     RB5_ISR@RB5_Source:
   642                           	callstack 0
   643   000001                     RB6_ISR@RB6_Source:
   644                           	callstack 0
   645   000001                     RB7_ISR@RB7_Source:
   646                           	callstack 0
   647   000001                     USART_Asynchronous_WriteByte_Blocking@_data:
   648                           	callstack 0
   649   000001                     USART_Asynchronous_ReadByte_NonBlocking@_data:
   650                           	callstack 0
   651   000001                     i2gpio_pin_write_logic@_pin_config:
   652                           	callstack 0
   653                           
   654                           ; 2 bytes @ 0x0
   655   000001                     	ds	1
   656   000002                     USART_Asynchronous_WriteString_Blocking@_data:
   657                           	callstack 0
   658                           
   659                           ; 2 bytes @ 0x1
   660   000002                     	ds	1
   661   000003                     USART_Asynchronous_ReadByte_NonBlocking@ret:
   662                           	callstack 0
   663   000003                     i2gpio_pin_write_logic@logic:
   664                           	callstack 0
   665                           
   666                           ; 1 bytes @ 0x2
   667   000003                     	ds	1
   668   000004                     ??i2_gpio_pin_write_logic:
   669   000004                     USART_FramingDefaultErrorHandler@_data_:
   670                           	callstack 0
   671   000004                     USART_Asynchronous_WriteString_Blocking@str_length:
   672                           	callstack 0
   673                           
   674                           ; 2 bytes @ 0x3
   675   000004                     	ds	2
   676   000006                     ??_USART_Asynchronous_WriteString_Blocking:
   677                           
   678                           ; 1 bytes @ 0x5
   679   000006                     	ds	2
   680   000008                     USART_Asynchronous_WriteString_Blocking@ret:
   681                           	callstack 0
   682                           
   683                           ; 1 bytes @ 0x7
   684   000008                     	ds	1
   685   000009                     USART_Asynchronous_WriteString_Blocking@char_counter:
   686                           	callstack 0
   687                           
   688                           ; 2 bytes @ 0x8
   689   000009                     	ds	1
   690   00000A                     led_turn_on@led:
   691                           	callstack 0
   692   00000A                     led_turn_off@led:
   693                           	callstack 0
   694                           
   695                           ; 2 bytes @ 0x9
   696   00000A                     	ds	2
   697   00000C                     ??_led_turn_on:
   698   00000C                     ??_led_turn_off:
   699                           
   700                           ; 1 bytes @ 0xB
   701   00000C                     	ds	1
   702   00000D                     led_turn_on@pin_obj:
   703                           	callstack 0
   704   00000D                     led_turn_off@pin_obj:
   705                           	callstack 0
   706                           
   707                           ; 1 bytes @ 0xC
   708   00000D                     	ds	1
   709   00000E                     ??_USART_RxDefaultInterruptHandler:
   710                           
   711                           ; 1 bytes @ 0xD
   712   00000E                     	ds	2
   713   000010                     ??_InterruptManager:
   714                           
   715                           ; 1 bytes @ 0xF
   716   000010                     	ds	10
   717   00001A                     ?___fltol:
   718                           	callstack 0
   719   00001A                     ?___xxtofl:
   720                           	callstack 0
   721   00001A                     gpio_pin_direction_intialize@_pin_config:
   722                           	callstack 0
   723   00001A                     gpio_pin_write_logic@_pin_config:
   724                           	callstack 0
   725   00001A                     USART_ASYNCRONOUS_TX_Init@_usart:
   726                           	callstack 0
   727   00001A                     USART_ASYNCRONOUS_RX_Init@_usart:
   728                           	callstack 0
   729   00001A                     ___fltol@f1:
   730                           	callstack 0
   731   00001A                     ___xxtofl@val:
   732                           	callstack 0
   733                           
   734                           ; 4 bytes @ 0x19
   735   00001A                     	ds	2
   736   00001C                     ??_gpio_pin_direction_intialize:
   737   00001C                     gpio_pin_write_logic@logic:
   738                           	callstack 0
   739                           
   740                           ; 1 bytes @ 0x1B
   741   00001C                     	ds	1
   742   00001D                     ??_gpio_pin_write_logic:
   743                           
   744                           ; 1 bytes @ 0x1C
   745   00001D                     	ds	1
   746   00001E                     ??___fltol:
   747   00001E                     ??___xxtofl:
   748                           
   749                           ; 1 bytes @ 0x1D
   750   00001E                     	ds	4
   751   000022                     gpio_pin_direction_intialize@ret:
   752                           	callstack 0
   753   000022                     ___fltol@sign1:
   754                           	callstack 0
   755   000022                     ___xxtofl@sign:
   756                           	callstack 0
   757                           
   758                           ; 1 bytes @ 0x21
   759   000022                     	ds	1
   760   000023                     gpio_pin_write_logic@ret:
   761                           	callstack 0
   762   000023                     ___fltol@exp1:
   763                           	callstack 0
   764   000023                     ___xxtofl@exp:
   765                           	callstack 0
   766                           
   767                           ; 1 bytes @ 0x22
   768   000023                     	ds	1
   769   000024                     lcd_send_4bits@lcd:
   770                           	callstack 0
   771   000024                     lcd_4bit_send_enable_signal@lcd:
   772                           	callstack 0
   773   000024                     lcd_8bit_send_enable_signal@lcd:
   774                           	callstack 0
   775   000024                     gpio_pin_intialize@_pin_config:
   776                           	callstack 0
   777   000024                     ___xxtofl@arg:
   778                           	callstack 0
   779                           
   780                           ; 4 bytes @ 0x23
   781   000024                     	ds	2
   782   000026                     ??_gpio_pin_intialize:
   783   000026                     lcd_send_4bits@_data_command:
   784                           	callstack 0
   785   000026                     lcd_4bit_send_enable_signal@ret:
   786                           	callstack 0
   787   000026                     lcd_8bit_send_enable_signal@ret:
   788                           	callstack 0
   789                           
   790                           ; 1 bytes @ 0x25
   791   000026                     	ds	1
   792   000027                     lcd_send_4bits@ret:
   793                           	callstack 0
   794   000027                     gpio_pin_intialize@ret:
   795                           	callstack 0
   796   000027                     lcd_8bit_send_command@lcd:
   797                           	callstack 0
   798                           
   799                           ; 2 bytes @ 0x26
   800   000027                     	ds	1
   801   000028                     ?___fldiv:
   802                           	callstack 0
   803   000028                     lcd_4bit_send_command@lcd:
   804                           	callstack 0
   805   000028                     led_initialize@led:
   806                           	callstack 0
   807   000028                     ___fldiv@b:
   808                           	callstack 0
   809                           
   810                           ; 4 bytes @ 0x27
   811   000028                     	ds	1
   812   000029                     lcd_8bit_send_command@command:
   813                           	callstack 0
   814                           
   815                           ; 1 bytes @ 0x28
   816   000029                     	ds	1
   817   00002A                     ??_lcd_8bit_send_command:
   818   00002A                     ??_led_initialize:
   819   00002A                     lcd_4bit_send_command@command:
   820                           	callstack 0
   821                           
   822                           ; 1 bytes @ 0x29
   823   00002A                     	ds	1
   824   00002B                     lcd_4bit_send_command@ret:
   825                           	callstack 0
   826   00002B                     led_initialize@ret:
   827                           	callstack 0
   828                           
   829                           ; 1 bytes @ 0x2A
   830   00002B                     	ds	1
   831   00002C                     led_initialize@pin_obj:
   832                           	callstack 0
   833   00002C                     lcd_4bit_intialize@lcd:
   834                           	callstack 0
   835   00002C                     ___fldiv@a:
   836                           	callstack 0
   837                           
   838                           ; 4 bytes @ 0x2B
   839   00002C                     	ds	2
   840   00002E                     ??_lcd_4bit_intialize:
   841   00002E                     lcd_8bit_send_command@ret:
   842                           	callstack 0
   843                           
   844                           ; 1 bytes @ 0x2D
   845   00002E                     	ds	1
   846   00002F                     lcd_8bit_send_command@l_pin_counter:
   847                           	callstack 0
   848                           
   849                           ; 1 bytes @ 0x2E
   850   00002F                     	ds	1
   851   000030                     ??___fldiv:
   852   000030                     lcd_4bit_intialize@l_data_pins_counter:
   853                           	callstack 0
   854   000030                     lcd_8bit_intialize@lcd:
   855                           	callstack 0
   856                           
   857                           ; 2 bytes @ 0x2F
   858   000030                     	ds	1
   859   000031                     lcd_4bit_intialize@ret:
   860                           	callstack 0
   861                           
   862                           ; 1 bytes @ 0x30
   863   000031                     	ds	1
   864   000032                     ??_lcd_8bit_intialize:
   865                           
   866                           ; 1 bytes @ 0x31
   867   000032                     	ds	2
   868   000034                     lcd_8bit_intialize@l_data_pins_counter:
   869                           	callstack 0
   870   000034                     ___fldiv@rem:
   871                           	callstack 0
   872                           
   873                           ; 4 bytes @ 0x33
   874   000034                     	ds	1
   875   000035                     lcd_8bit_intialize@ret:
   876                           	callstack 0
   877                           
   878                           ; 1 bytes @ 0x34
   879   000035                     	ds	1
   880   000036                     
   881                           ; 1 bytes @ 0x35
   882   000036                     	ds	2
   883   000038                     ___fldiv@sign:
   884                           	callstack 0
   885                           
   886                           ; 1 bytes @ 0x37
   887   000038                     	ds	1
   888   000039                     ___fldiv@new_exp:
   889                           	callstack 0
   890                           
   891                           ; 2 bytes @ 0x38
   892   000039                     	ds	2
   893   00003B                     ___fldiv@grs:
   894                           	callstack 0
   895                           
   896                           ; 4 bytes @ 0x3A
   897   00003B                     	ds	4
   898   00003F                     ___fldiv@bexp:
   899                           	callstack 0
   900                           
   901                           ; 1 bytes @ 0x3E
   902   00003F                     	ds	1
   903   000040                     ___fldiv@aexp:
   904                           	callstack 0
   905                           
   906                           ; 1 bytes @ 0x3F
   907   000040                     	ds	1
   908   000041                     ??___fladd:
   909                           
   910                           ; 1 bytes @ 0x40
   911   000041                     	ds	4
   912   000045                     USART_Baud_Rate_Calculation@_usart:
   913                           	callstack 0
   914                           
   915                           ; 2 bytes @ 0x44
   916   000045                     	ds	2
   917   000047                     
   918                           ; 1 bytes @ 0x46
   919 ;;
   920 ;;Main: autosize = 0, tempsize = 0, incstack = 0, save=0
   921 ;;
   922 ;; *************** function _main *****************
   923 ;; Defined at:
   924 ;;		line 111 in file "application.c"
   925 ;; Parameters:    Size  Location     Type
   926 ;;		None
   927 ;; Auto vars:     Size  Location     Type
   928 ;;  ret             1    0        unsigned char 
   929 ;; Return value:  Size  Location     Type
   930 ;;                  2  1610[None  ] int 
   931 ;; Registers used:
   932 ;;		wreg, fsr2l, fsr2h, status,2, status,0, prodl, prodh, cstack
   933 ;; Tracked objects:
   934 ;;		On entry : 0/0
   935 ;;		On exit  : 0/0
   936 ;;		Unchanged: 0/0
   937 ;; Data sizes:     COMRAM   BANK0   BANK1   BANK2   BANK3   BANK4   BANK5   BANK6   BANK7   BANK8   BANK9  BANK10  BANK1
      +1  BANK12  BANK13  BANK14  BANK15
   938 ;;      Params:         0       0       0       0       0       0       0       0       0       0       0       0       
      +0       0       0       0       0
   939 ;;      Locals:         0       0       0       0       0       0       0       0       0       0       0       0       
      +0       0       0       0       0
   940 ;;      Temps:          0       0       0       0       0       0       0       0       0       0       0       0       
      +0       0       0       0       0
   941 ;;      Totals:         0       0       0       0       0       0       0       0       0       0       0       0       
      +0       0       0       0       0
   942 ;;Total ram usage:        0 bytes
   943 ;; Hardware stack levels required when called: 11
   944 ;; This function calls:
   945 ;;		_application_intialize
   946 ;;		_led_initialize
   947 ;;		_usart_module_int_init
   948 ;; This function is called by:
   949 ;;		Startup code after reset
   950 ;; This function uses a non-reentrant model
   951 ;;
   952                           
   953                           	psect	text0
   954   0032F8                     __ptext0:
   955                           	callstack 0
   956   0032F8                     _main:
   957                           	callstack 20
   958   0032F8                     
   959                           ;application.c: 114:     application_intialize();
   960   0032F8  EC06  F01A         	call	_application_intialize	;wreg free
   961   0032FC                     
   962                           ;application.c: 115:     usart_module_int_init();
   963   0032FC  ECB1  F018         	call	_usart_module_int_init	;wreg free
   964   003300  0E65               	movlw	low _led1
   965   003302  6E28               	movwf	led_initialize@led^0,c
   966   003304  0E00               	movlw	high _led1
   967   003306  6E29               	movwf	(led_initialize@led+1)^0,c
   968   003308  ECFE  F016         	call	_led_initialize	;wreg free
   969   00330C  0E64               	movlw	low _led2
   970   00330E  6E28               	movwf	led_initialize@led^0,c
   971   003310  0E00               	movlw	high _led2
   972   003312  6E29               	movwf	(led_initialize@led+1)^0,c
   973   003314  ECFE  F016         	call	_led_initialize	;wreg free
   974   003318                     l1611:
   975   003318  EF8C  F019         	goto	l1611
   976   00331C  EF07  F000         	goto	start
   977   003320                     __end_of_main:
   978                           	callstack 0
   979                           
   980 ;; *************** function _usart_module_int_init *****************
   981 ;; Defined at:
   982 ;;		line 85 in file "application.c"
   983 ;; Parameters:    Size  Location     Type
   984 ;;		None
   985 ;; Auto vars:     Size  Location     Type
   986 ;;  usart_obj      18    0[BANK1 ] struct .
   987 ;;  ret             1    0        unsigned char 
   988 ;; Return value:  Size  Location     Type
   989 ;;                  1    wreg      void 
   990 ;; Registers used:
   991 ;;		wreg, fsr2l, fsr2h, status,2, status,0, cstack
   992 ;; Tracked objects:
   993 ;;		On entry : 0/0
   994 ;;		On exit  : 0/0
   995 ;;		Unchanged: 0/0
   996 ;; Data sizes:     COMRAM   BANK0   BANK1   BANK2   BANK3   BANK4   BANK5   BANK6   BANK7   BANK8   BANK9  BANK10  BANK1
      +1  BANK12  BANK13  BANK14  BANK15
   997 ;;      Params:         0       0       0       0       0       0       0       0       0       0       0       0       
      +0       0       0       0       0
   998 ;;      Locals:         0       0      18       0       0       0       0       0       0       0       0       0       
      +0       0       0       0       0
   999 ;;      Temps:          0       0       0       0       0       0       0       0       0       0       0       0       
      +0       0       0       0       0
  1000 ;;      Totals:         0       0      18       0       0       0       0       0       0       0       0       0       
      +0       0       0       0       0
  1001 ;;Total ram usage:       18 bytes
  1002 ;; Hardware stack levels used: 1
  1003 ;; Hardware stack levels required when called: 8
  1004 ;; This function calls:
  1005 ;;		_USART_Asynchronous_Initialize
  1006 ;; This function is called by:
  1007 ;;		_main
  1008 ;; This function uses a non-reentrant model
  1009 ;;
  1010                           
  1011                           	psect	text1
  1012   003162                     __ptext1:
  1013                           	callstack 0
  1014   003162                     _usart_module_int_init:
  1015                           	callstack 22
  1016   003162                     
  1017                           ;application.c: 88:     usart_t usart_obj;;application.c: 90:     usart_obj.USART_Framin
      +                          gErrorHandler = USART_FramingDefaultErrorHandler;
  1018   003162  0ECC               	movlw	low _USART_FramingDefaultErrorHandler
  1019   003164  0101               	movlb	1	; () banked
  1020   003166  6F0E               	movwf	(usart_module_int_init@usart_obj+14)& (0+255),b
  1021   003168  0E33               	movlw	high _USART_FramingDefaultErrorHandler
  1022   00316A  6F0F               	movwf	(usart_module_int_init@usart_obj+15)& (0+255),b
  1023   00316C                     
  1024                           ; BSR set to: 1
  1025                           ;application.c: 91:     usart_obj.USART_OverrunErrorHandler = USART_OverrunDefaultErrorH
      +                          andler;
  1026   00316C  0E12               	movlw	low _USART_OverrunDefaultErrorHandler
  1027   00316E  6F10               	movwf	(usart_module_int_init@usart_obj+16)& (0+255),b
  1028   003170  0E34               	movlw	high _USART_OverrunDefaultErrorHandler
  1029   003172  6F11               	movwf	(usart_module_int_init@usart_obj+17)& (0+255),b
  1030   003174                     
  1031                           ; BSR set to: 1
  1032                           ;application.c: 92:     usart_obj.USART_RxDefaultInterruptHandler = USART_RxDefaultInter
      +                          ruptHandler;
  1033   003174  0E56               	movlw	low _USART_RxDefaultInterruptHandler
  1034   003176  6F0C               	movwf	(usart_module_int_init@usart_obj+12)& (0+255),b
  1035   003178  0E2A               	movlw	high _USART_RxDefaultInterruptHandler
  1036   00317A  6F0D               	movwf	(usart_module_int_init@usart_obj+13)& (0+255),b
  1037   00317C                     
  1038                           ; BSR set to: 1
  1039                           ;application.c: 93:     usart_obj.USART_TxDefaultInterruptHandler = USART_TxDefaultInter
      +                          ruptHandler;
  1040   00317C  0EBC               	movlw	low _USART_TxDefaultInterruptHandler
  1041   00317E  6F0A               	movwf	(usart_module_int_init@usart_obj+10)& (0+255),b
  1042   003180  0E33               	movlw	high _USART_TxDefaultInterruptHandler
  1043   003182  6F0B               	movwf	(usart_module_int_init@usart_obj+11)& (0+255),b
  1044                           
  1045                           ;application.c: 95:     usart_obj.baudrate = 9600;
  1046   003184  0E80               	movlw	128
  1047   003186  6F00               	movwf	usart_module_int_init@usart_obj& (0+255),b
  1048   003188  0E25               	movlw	37
  1049   00318A  6F01               	movwf	(usart_module_int_init@usart_obj+1)& (0+255),b
  1050   00318C  0E00               	movlw	0
  1051   00318E  6F02               	movwf	(usart_module_int_init@usart_obj+2)& (0+255),b
  1052   003190  0E00               	movlw	0
  1053   003192  6F03               	movwf	(usart_module_int_init@usart_obj+3)& (0+255),b
  1054                           
  1055                           ;application.c: 96:     usart_obj.baudrate_config = BAUDRATE_ASYNCHRONOUS_MODE_8BIT_LOW_
      +                          SPEED;
  1056   003194  0E00               	movlw	0
  1057   003196  6F04               	movwf	(usart_module_int_init@usart_obj+4)& (0+255),b
  1058   003198                     
  1059                           ; BSR set to: 1
  1060                           ;application.c: 98:     usart_obj.usart_tx_cfg.usart_enable_tx = 1;
  1061   003198  8B05               	bsf	(usart_module_int_init@usart_obj+5)& (0+255),5,b
  1062   00319A                     
  1063                           ; BSR set to: 1
  1064                           ;application.c: 99:     usart_obj.usart_tx_cfg.usart_enable_tx_interrupt = 1;
  1065   00319A  8D05               	bsf	(usart_module_int_init@usart_obj+5)& (0+255),6,b
  1066   00319C                     
  1067                           ; BSR set to: 1
  1068                           ;application.c: 100:     usart_obj.usart_tx_cfg.usart_enable_9bit_tx = 0;
  1069   00319C  9F05               	bcf	(usart_module_int_init@usart_obj+5)& (0+255),7,b
  1070   00319E                     
  1071                           ; BSR set to: 1
  1072                           ;application.c: 102:     usart_obj.usart_rx_cfg.usart_enable_rx = 1;
  1073   00319E  8B07               	bsf	(usart_module_int_init@usart_obj+7)& (0+255),5,b
  1074   0031A0                     
  1075                           ; BSR set to: 1
  1076                           ;application.c: 103:     usart_obj.usart_rx_cfg.usart_enable_rx_interrupt = 1;
  1077   0031A0  8D07               	bsf	(usart_module_int_init@usart_obj+7)& (0+255),6,b
  1078   0031A2                     
  1079                           ; BSR set to: 1
  1080                           ;application.c: 104:     usart_obj.usart_rx_cfg.usart_enable_9bit_rx = 0;
  1081   0031A2  9F07               	bcf	(usart_module_int_init@usart_obj+7)& (0+255),7,b
  1082   0031A4                     
  1083                           ; BSR set to: 1
  1084   0031A4  0E00               	movlw	low usart_module_int_init@usart_obj
  1085   0031A6  0100               	movlb	0	; () banked
  1086   0031A8  6FFC               	movwf	USART_Asynchronous_Initialize@_usart& (0+255),b
  1087   0031AA  0E01               	movlw	high usart_module_int_init@usart_obj
  1088   0031AC  6FFD               	movwf	(USART_Asynchronous_Initialize@_usart+1)& (0+255),b
  1089   0031AE  ECDA  F018         	call	_USART_Asynchronous_Initialize	;wreg free
  1090   0031B2  0012               	return		;funcret
  1091   0031B4                     __end_of_usart_module_int_init:
  1092                           	callstack 0
  1093                           
  1094 ;; *************** function _USART_Asynchronous_Initialize *****************
  1095 ;; Defined at:
  1096 ;;		line 57 in file "MCAL_Layer/USART/hal_usart.c"
  1097 ;; Parameters:    Size  Location     Type
  1098 ;;  _usart          2   22[BANK0 ] PTR const struct .
  1099 ;;		 -> usart_module_int_init@usart_obj(18), usart_module_init@usart_obj(18), 
  1100 ;; Auto vars:     Size  Location     Type
  1101 ;;  ret             1   24[BANK0 ] unsigned char 
  1102 ;; Return value:  Size  Location     Type
  1103 ;;                  1    wreg      unsigned char 
  1104 ;; Registers used:
  1105 ;;		wreg, fsr2l, fsr2h, status,2, status,0, cstack
  1106 ;; Tracked objects:
  1107 ;;		On entry : 0/0
  1108 ;;		On exit  : 0/0
  1109 ;;		Unchanged: 0/0
  1110 ;; Data sizes:     COMRAM   BANK0   BANK1   BANK2   BANK3   BANK4   BANK5   BANK6   BANK7   BANK8   BANK9  BANK10  BANK1
      +1  BANK12  BANK13  BANK14  BANK15
  1111 ;;      Params:         0       2       0       0       0       0       0       0       0       0       0       0       
      +0       0       0       0       0
  1112 ;;      Locals:         0       1       0       0       0       0       0       0       0       0       0       0       
      +0       0       0       0       0
  1113 ;;      Temps:          0       0       0       0       0       0       0       0       0       0       0       0       
      +0       0       0       0       0
  1114 ;;      Totals:         0       3       0       0       0       0       0       0       0       0       0       0       
      +0       0       0       0       0
  1115 ;;Total ram usage:        3 bytes
  1116 ;; Hardware stack levels used: 1
  1117 ;; Hardware stack levels required when called: 7
  1118 ;; This function calls:
  1119 ;;		_USART_ASYNCRONOUS_RX_Init
  1120 ;;		_USART_ASYNCRONOUS_TX_Init
  1121 ;;		_USART_Baud_Rate_Calculation
  1122 ;; This function is called by:
  1123 ;;		_usart_module_int_init
  1124 ;;		_usart_module_init
  1125 ;; This function uses a non-reentrant model
  1126 ;;
  1127                           
  1128                           	psect	text2
  1129   0031B4                     __ptext2:
  1130                           	callstack 0
  1131   0031B4                     _USART_Asynchronous_Initialize:
  1132                           	callstack 22
  1133   0031B4                     
  1134                           ;MCAL_Layer/USART/hal_usart.c: 60:     if(((void*)0) == _usart)
  1135   0031B4  0100               	movlb	0	; () banked
  1136   0031B6  51FC               	movf	USART_Asynchronous_Initialize@_usart& (0+255),w,b
  1137   0031B8  11FD               	iorwf	(USART_Asynchronous_Initialize@_usart+1)& (0+255),w,b
  1138   0031BA  A4D8               	btfss	status,2,c
  1139   0031BC  EFE2  F018         	goto	u7991
  1140   0031C0  EFE4  F018         	goto	u7990
  1141   0031C4                     u7991:
  1142   0031C4  EFE8  F018         	goto	l1463
  1143   0031C8                     u7990:
  1144   0031C8                     
  1145                           ; BSR set to: 0
  1146                           ;MCAL_Layer/USART/hal_usart.c: 61:     {;MCAL_Layer/USART/hal_usart.c: 62:         ret =
      +                           (Std_ReturnType)0x00;
  1147   0031C8  0E00               	movlw	0
  1148   0031CA  6FFE               	movwf	USART_Asynchronous_Initialize@ret& (0+255),b
  1149                           
  1150                           ;MCAL_Layer/USART/hal_usart.c: 63:     }
  1151   0031CC  EF01  F019         	goto	l8352
  1152   0031D0                     l1463:
  1153                           
  1154                           ; BSR set to: 0
  1155                           ;MCAL_Layer/USART/hal_usart.c: 65:     {;MCAL_Layer/USART/hal_usart.c: 67:         RCSTA
      +                          bits.SPEN = 0;
  1156   0031D0  9EAB               	bcf	171,7,c	;volatile
  1157                           
  1158                           ;MCAL_Layer/USART/hal_usart.c: 69:         TRISCbits.RC7 = 1;
  1159   0031D2  8E94               	bsf	148,7,c	;volatile
  1160                           
  1161                           ;MCAL_Layer/USART/hal_usart.c: 70:         TRISCbits.RC6 = 1;
  1162   0031D4  8C94               	bsf	148,6,c	;volatile
  1163   0031D6                     
  1164                           ; BSR set to: 0
  1165                           ;MCAL_Layer/USART/hal_usart.c: 72:         USART_Baud_Rate_Calculation(_usart);
  1166   0031D6  C0FC  F045         	movff	USART_Asynchronous_Initialize@_usart,USART_Baud_Rate_Calculation@_usart
  1167   0031DA  C0FD  F046         	movff	USART_Asynchronous_Initialize@_usart+1,USART_Baud_Rate_Calculation@_usart+1
  1168   0031DE  EC1E  F008         	call	_USART_Baud_Rate_Calculation	;wreg free
  1169                           
  1170                           ;MCAL_Layer/USART/hal_usart.c: 74:         USART_ASYNCRONOUS_TX_Init(_usart);
  1171   0031E2  C0FC  F01A         	movff	USART_Asynchronous_Initialize@_usart,USART_ASYNCRONOUS_TX_Init@_usart
  1172   0031E6  C0FD  F01B         	movff	USART_Asynchronous_Initialize@_usart+1,USART_ASYNCRONOUS_TX_Init@_usart+1
  1173   0031EA  EC1C  F016         	call	_USART_ASYNCRONOUS_TX_Init	;wreg free
  1174                           
  1175                           ;MCAL_Layer/USART/hal_usart.c: 76:         USART_ASYNCRONOUS_RX_Init(_usart);
  1176   0031EE  C0FC  F01A         	movff	USART_Asynchronous_Initialize@_usart,USART_ASYNCRONOUS_RX_Init@_usart
  1177   0031F2  C0FD  F01B         	movff	USART_Asynchronous_Initialize@_usart+1,USART_ASYNCRONOUS_RX_Init@_usart+1
  1178   0031F6  ECAE  F015         	call	_USART_ASYNCRONOUS_RX_Init	;wreg free
  1179   0031FA                     
  1180                           ;MCAL_Layer/USART/hal_usart.c: 78:         RCSTAbits.SPEN = 1;
  1181   0031FA  8EAB               	bsf	171,7,c	;volatile
  1182   0031FC                     
  1183                           ;MCAL_Layer/USART/hal_usart.c: 79:         ret = (Std_ReturnType)0x01;
  1184   0031FC  0E01               	movlw	1
  1185   0031FE  0100               	movlb	0	; () banked
  1186   003200  6FFE               	movwf	USART_Asynchronous_Initialize@ret& (0+255),b
  1187   003202                     l8352:
  1188                           
  1189                           ; BSR set to: 0
  1190                           ;MCAL_Layer/USART/hal_usart.c: 81:     return ret;
  1191   003202  51FE               	movf	USART_Asynchronous_Initialize@ret& (0+255),w,b
  1192   003204                     
  1193                           ; BSR set to: 0
  1194   003204  0012               	return		;funcret
  1195   003206                     __end_of_USART_Asynchronous_Initialize:
  1196                           	callstack 0
  1197                           
  1198 ;; *************** function _USART_Baud_Rate_Calculation *****************
  1199 ;; Defined at:
  1200 ;;		line 229 in file "MCAL_Layer/USART/hal_usart.c"
  1201 ;; Parameters:    Size  Location     Type
  1202 ;;  _usart          2   68[COMRAM] PTR const struct .
  1203 ;;		 -> usart_module_int_init@usart_obj(18), usart_module_init@usart_obj(18), 
  1204 ;; Auto vars:     Size  Location     Type
  1205 ;;  Baud_Rate_Te    4   14[BANK0 ] float 
  1206 ;; Return value:  Size  Location     Type
  1207 ;;                  1    wreg      void 
  1208 ;; Registers used:
  1209 ;;		wreg, fsr2l, fsr2h, status,2, status,0, cstack
  1210 ;; Tracked objects:
  1211 ;;		On entry : 0/0
  1212 ;;		On exit  : 0/0
  1213 ;;		Unchanged: 0/0
  1214 ;; Data sizes:     COMRAM   BANK0   BANK1   BANK2   BANK3   BANK4   BANK5   BANK6   BANK7   BANK8   BANK9  BANK10  BANK1
      +1  BANK12  BANK13  BANK14  BANK15
  1215 ;;      Params:         2       0       0       0       0       0       0       0       0       0       0       0       
      +0       0       0       0       0
  1216 ;;      Locals:         0       8       0       0       0       0       0       0       0       0       0       0       
      +0       0       0       0       0
  1217 ;;      Temps:          0       2       0       0       0       0       0       0       0       0       0       0       
      +0       0       0       0       0
  1218 ;;      Totals:         2      10       0       0       0       0       0       0       0       0       0       0       
      +0       0       0       0       0
  1219 ;;Total ram usage:       12 bytes
  1220 ;; Hardware stack levels used: 1
  1221 ;; Hardware stack levels required when called: 6
  1222 ;; This function calls:
  1223 ;;		___fladd
  1224 ;;		___fldiv
  1225 ;;		___fltol
  1226 ;;		___xxtofl
  1227 ;; This function is called by:
  1228 ;;		_USART_Asynchronous_Initialize
  1229 ;; This function uses a non-reentrant model
  1230 ;;
  1231                           
  1232                           	psect	text3
  1233   00103C                     __ptext3:
  1234                           	callstack 0
  1235   00103C                     _USART_Baud_Rate_Calculation:
  1236                           	callstack 22
  1237   00103C                     
  1238                           ;MCAL_Layer/USART/hal_usart.c: 229: static void USART_Baud_Rate_Calculation(const usart_
      +                          t *_usart);MCAL_Layer/USART/hal_usart.c: 230: {;MCAL_Layer/USART/hal_usart.c: 231:     f
      +                          loat Baud_Rate_Temp_Value = 0;
  1239   00103C  0E00               	movlw	0
  1240   00103E  0100               	movlb	0	; () banked
  1241   001040  6FF4               	movwf	USART_Baud_Rate_Calculation@Baud_Rate_Temp_Value& (0+255),b
  1242   001042  0E00               	movlw	0
  1243   001044  6FF5               	movwf	(USART_Baud_Rate_Calculation@Baud_Rate_Temp_Value+1)& (0+255),b
  1244   001046  0E00               	movlw	0
  1245   001048  6FF6               	movwf	(USART_Baud_Rate_Calculation@Baud_Rate_Temp_Value+2)& (0+255),b
  1246   00104A  0E00               	movlw	0
  1247   00104C  6FF7               	movwf	(USART_Baud_Rate_Calculation@Baud_Rate_Temp_Value+3)& (0+255),b
  1248                           
  1249                           ;MCAL_Layer/USART/hal_usart.c: 232:     switch(_usart->baudrate_config)
  1250   00104E  EF49  F00A         	goto	l8290
  1251   001052                     l1505:
  1252                           
  1253                           ; BSR set to: 0
  1254                           ;MCAL_Layer/USART/hal_usart.c: 235:             TXSTAbits.SYNC = 0;
  1255   001052  98AC               	bcf	172,4,c	;volatile
  1256                           
  1257                           ;MCAL_Layer/USART/hal_usart.c: 236:             TXSTAbits.BRGH = 0;
  1258   001054  94AC               	bcf	172,2,c	;volatile
  1259                           
  1260                           ;MCAL_Layer/USART/hal_usart.c: 237:             BAUDCONbits.BRG16 = 0;
  1261   001056  96B8               	bcf	184,3,c	;volatile
  1262   001058                     
  1263                           ; BSR set to: 0
  1264                           ;MCAL_Layer/USART/hal_usart.c: 238:             Baud_Rate_Temp_Value = ((8000000UL / (fl
      +                          oat)_usart->baudrate) / 64) - 1;
  1265   001058  C045  FFD9         	movff	USART_Baud_Rate_Calculation@_usart,fsr2l
  1266   00105C  C046  FFDA         	movff	USART_Baud_Rate_Calculation@_usart+1,fsr2h
  1267   001060  CFDE F01A          	movff	postinc2,___xxtofl@val
  1268   001064  CFDE F01B          	movff	postinc2,___xxtofl@val+1
  1269   001068  CFDE F01C          	movff	postinc2,___xxtofl@val+2
  1270   00106C  CFDE F01D          	movff	postinc2,___xxtofl@val+3
  1271   001070  0E00               	movlw	0
  1272   001072  ECDD  F010         	call	___xxtofl
  1273   001076  C01A  F02C         	movff	?___xxtofl,___fldiv@a
  1274   00107A  C01B  F02D         	movff	?___xxtofl+1,___fldiv@a+1
  1275   00107E  C01C  F02E         	movff	?___xxtofl+2,___fldiv@a+2
  1276   001082  C01D  F02F         	movff	?___xxtofl+3,___fldiv@a+3
  1277   001086  0E00               	movlw	0
  1278   001088  6E28               	movwf	___fldiv@b^0,c
  1279   00108A  0E24               	movlw	36
  1280   00108C  6E29               	movwf	(___fldiv@b+1)^0,c
  1281   00108E  0EF4               	movlw	244
  1282   001090  6E2A               	movwf	(___fldiv@b+2)^0,c
  1283   001092  0E4A               	movlw	74
  1284   001094  6E2B               	movwf	(___fldiv@b+3)^0,c
  1285   001096  EC10  F00F         	call	___fldiv	;wreg free
  1286   00109A  C028  F0F8         	movff	?___fldiv,_USART_Baud_Rate_Calculation$5135
  1287   00109E  C029  F0F9         	movff	?___fldiv+1,_USART_Baud_Rate_Calculation$5135+1
  1288   0010A2  C02A  F0FA         	movff	?___fldiv+2,_USART_Baud_Rate_Calculation$5135+2
  1289   0010A6  C02B  F0FB         	movff	?___fldiv+3,_USART_Baud_Rate_Calculation$5135+3
  1290   0010AA                     
  1291                           ;MCAL_Layer/USART/hal_usart.c: 238:             Baud_Rate_Temp_Value = ((8000000UL / (fl
      +                          oat)_usart->baudrate) / 64) - 1;
  1292   0010AA  0E00               	movlw	0
  1293   0010AC  6E2C               	movwf	___fldiv@a^0,c
  1294   0010AE  0E00               	movlw	0
  1295   0010B0  6E2D               	movwf	(___fldiv@a+1)^0,c
  1296   0010B2  0E80               	movlw	128
  1297   0010B4  6E2E               	movwf	(___fldiv@a+2)^0,c
  1298   0010B6  0E42               	movlw	66
  1299   0010B8  6E2F               	movwf	(___fldiv@a+3)^0,c
  1300   0010BA  C0F8  F028         	movff	_USART_Baud_Rate_Calculation$5135,___fldiv@b
  1301   0010BE  C0F9  F029         	movff	_USART_Baud_Rate_Calculation$5135+1,___fldiv@b+1
  1302   0010C2  C0FA  F02A         	movff	_USART_Baud_Rate_Calculation$5135+2,___fldiv@b+2
  1303   0010C6  C0FB  F02B         	movff	_USART_Baud_Rate_Calculation$5135+3,___fldiv@b+3
  1304   0010CA  EC10  F00F         	call	___fldiv	;wreg free
  1305   0010CE  C028  F0E6         	movff	?___fldiv,___fladd@b
  1306   0010D2  C029  F0E7         	movff	?___fldiv+1,___fladd@b+1
  1307   0010D6  C02A  F0E8         	movff	?___fldiv+2,___fladd@b+2
  1308   0010DA  C02B  F0E9         	movff	?___fldiv+3,___fladd@b+3
  1309   0010DE  0E00               	movlw	0
  1310   0010E0  0100               	movlb	0	; () banked
  1311   0010E2  6FEA               	movwf	___fladd@a& (0+255),b
  1312   0010E4  0E00               	movlw	0
  1313   0010E6  6FEB               	movwf	(___fladd@a+1)& (0+255),b
  1314   0010E8  0E80               	movlw	128
  1315   0010EA  6FEC               	movwf	(___fladd@a+2)& (0+255),b
  1316   0010EC  0EBF               	movlw	191
  1317   0010EE  6FED               	movwf	(___fladd@a+3)& (0+255),b
  1318   0010F0  EC94  F00A         	call	___fladd	;wreg free
  1319   0010F4  C0E6  F0F4         	movff	?___fladd,USART_Baud_Rate_Calculation@Baud_Rate_Temp_Value
  1320   0010F8  C0E7  F0F5         	movff	?___fladd+1,USART_Baud_Rate_Calculation@Baud_Rate_Temp_Value+1
  1321   0010FC  C0E8  F0F6         	movff	?___fladd+2,USART_Baud_Rate_Calculation@Baud_Rate_Temp_Value+2
  1322   001100  C0E9  F0F7         	movff	?___fladd+3,USART_Baud_Rate_Calculation@Baud_Rate_Temp_Value+3
  1323                           
  1324                           ;MCAL_Layer/USART/hal_usart.c: 239:         break;
  1325   001104  EF74  F00A         	goto	l8292
  1326   001108                     l1507:
  1327                           
  1328                           ; BSR set to: 0
  1329                           ;MCAL_Layer/USART/hal_usart.c: 242:             TXSTAbits.SYNC = 0;
  1330   001108  98AC               	bcf	172,4,c	;volatile
  1331                           
  1332                           ;MCAL_Layer/USART/hal_usart.c: 243:             TXSTAbits.BRGH = 1;
  1333   00110A  84AC               	bsf	172,2,c	;volatile
  1334                           
  1335                           ;MCAL_Layer/USART/hal_usart.c: 244:             BAUDCONbits.BRG16 = 0;
  1336   00110C  96B8               	bcf	184,3,c	;volatile
  1337   00110E                     
  1338                           ; BSR set to: 0
  1339                           ;MCAL_Layer/USART/hal_usart.c: 245:             Baud_Rate_Temp_Value = ((8000000UL / (fl
      +                          oat)_usart->baudrate) / 16) - 1;
  1340   00110E  C045  FFD9         	movff	USART_Baud_Rate_Calculation@_usart,fsr2l
  1341   001112  C046  FFDA         	movff	USART_Baud_Rate_Calculation@_usart+1,fsr2h
  1342   001116  CFDE F01A          	movff	postinc2,___xxtofl@val
  1343   00111A  CFDE F01B          	movff	postinc2,___xxtofl@val+1
  1344   00111E  CFDE F01C          	movff	postinc2,___xxtofl@val+2
  1345   001122  CFDE F01D          	movff	postinc2,___xxtofl@val+3
  1346   001126  0E00               	movlw	0
  1347   001128  ECDD  F010         	call	___xxtofl
  1348   00112C  C01A  F02C         	movff	?___xxtofl,___fldiv@a
  1349   001130  C01B  F02D         	movff	?___xxtofl+1,___fldiv@a+1
  1350   001134  C01C  F02E         	movff	?___xxtofl+2,___fldiv@a+2
  1351   001138  C01D  F02F         	movff	?___xxtofl+3,___fldiv@a+3
  1352   00113C  0E00               	movlw	0
  1353   00113E  6E28               	movwf	___fldiv@b^0,c
  1354   001140  0E24               	movlw	36
  1355   001142  6E29               	movwf	(___fldiv@b+1)^0,c
  1356   001144  0EF4               	movlw	244
  1357   001146  6E2A               	movwf	(___fldiv@b+2)^0,c
  1358   001148  0E4A               	movlw	74
  1359   00114A  6E2B               	movwf	(___fldiv@b+3)^0,c
  1360   00114C  EC10  F00F         	call	___fldiv	;wreg free
  1361   001150  C028  F0F8         	movff	?___fldiv,_USART_Baud_Rate_Calculation$5135
  1362   001154  C029  F0F9         	movff	?___fldiv+1,_USART_Baud_Rate_Calculation$5135+1
  1363   001158  C02A  F0FA         	movff	?___fldiv+2,_USART_Baud_Rate_Calculation$5135+2
  1364   00115C  C02B  F0FB         	movff	?___fldiv+3,_USART_Baud_Rate_Calculation$5135+3
  1365   001160                     
  1366                           ;MCAL_Layer/USART/hal_usart.c: 245:             Baud_Rate_Temp_Value = ((8000000UL / (fl
      +                          oat)_usart->baudrate) / 16) - 1;
  1367   001160  0E00               	movlw	0
  1368   001162  6E2C               	movwf	___fldiv@a^0,c
  1369   001164  0E00               	movlw	0
  1370   001166  6E2D               	movwf	(___fldiv@a+1)^0,c
  1371   001168  0E80               	movlw	128
  1372   00116A  6E2E               	movwf	(___fldiv@a+2)^0,c
  1373   00116C  0E41               	movlw	65
  1374   00116E  6E2F               	movwf	(___fldiv@a+3)^0,c
  1375   001170  C0F8  F028         	movff	_USART_Baud_Rate_Calculation$5135,___fldiv@b
  1376   001174  C0F9  F029         	movff	_USART_Baud_Rate_Calculation$5135+1,___fldiv@b+1
  1377   001178  C0FA  F02A         	movff	_USART_Baud_Rate_Calculation$5135+2,___fldiv@b+2
  1378   00117C  C0FB  F02B         	movff	_USART_Baud_Rate_Calculation$5135+3,___fldiv@b+3
  1379   001180  EC10  F00F         	call	___fldiv	;wreg free
  1380   001184  C028  F0E6         	movff	?___fldiv,___fladd@b
  1381   001188  C029  F0E7         	movff	?___fldiv+1,___fladd@b+1
  1382   00118C  C02A  F0E8         	movff	?___fldiv+2,___fladd@b+2
  1383   001190  C02B  F0E9         	movff	?___fldiv+3,___fladd@b+3
  1384   001194  0E00               	movlw	0
  1385   001196  0100               	movlb	0	; () banked
  1386   001198  6FEA               	movwf	___fladd@a& (0+255),b
  1387   00119A  0E00               	movlw	0
  1388   00119C  6FEB               	movwf	(___fladd@a+1)& (0+255),b
  1389   00119E  0E80               	movlw	128
  1390   0011A0  6FEC               	movwf	(___fladd@a+2)& (0+255),b
  1391   0011A2  0EBF               	movlw	191
  1392   0011A4  6FED               	movwf	(___fladd@a+3)& (0+255),b
  1393   0011A6  EC94  F00A         	call	___fladd	;wreg free
  1394   0011AA  C0E6  F0F4         	movff	?___fladd,USART_Baud_Rate_Calculation@Baud_Rate_Temp_Value
  1395   0011AE  C0E7  F0F5         	movff	?___fladd+1,USART_Baud_Rate_Calculation@Baud_Rate_Temp_Value+1
  1396   0011B2  C0E8  F0F6         	movff	?___fladd+2,USART_Baud_Rate_Calculation@Baud_Rate_Temp_Value+2
  1397   0011B6  C0E9  F0F7         	movff	?___fladd+3,USART_Baud_Rate_Calculation@Baud_Rate_Temp_Value+3
  1398                           
  1399                           ;MCAL_Layer/USART/hal_usart.c: 246:         break;
  1400   0011BA  EF74  F00A         	goto	l8292
  1401   0011BE                     l1508:
  1402                           
  1403                           ; BSR set to: 0
  1404                           ;MCAL_Layer/USART/hal_usart.c: 249:             TXSTAbits.SYNC = 0;
  1405   0011BE  98AC               	bcf	172,4,c	;volatile
  1406                           
  1407                           ;MCAL_Layer/USART/hal_usart.c: 250:             TXSTAbits.BRGH = 0;
  1408   0011C0  94AC               	bcf	172,2,c	;volatile
  1409                           
  1410                           ;MCAL_Layer/USART/hal_usart.c: 251:             BAUDCONbits.BRG16 = 1;
  1411   0011C2  86B8               	bsf	184,3,c	;volatile
  1412   0011C4                     
  1413                           ; BSR set to: 0
  1414                           ;MCAL_Layer/USART/hal_usart.c: 252:             Baud_Rate_Temp_Value = ((8000000UL / (fl
      +                          oat)_usart->baudrate) / 16) - 1;
  1415   0011C4  C045  FFD9         	movff	USART_Baud_Rate_Calculation@_usart,fsr2l
  1416   0011C8  C046  FFDA         	movff	USART_Baud_Rate_Calculation@_usart+1,fsr2h
  1417   0011CC  CFDE F01A          	movff	postinc2,___xxtofl@val
  1418   0011D0  CFDE F01B          	movff	postinc2,___xxtofl@val+1
  1419   0011D4  CFDE F01C          	movff	postinc2,___xxtofl@val+2
  1420   0011D8  CFDE F01D          	movff	postinc2,___xxtofl@val+3
  1421   0011DC  0E00               	movlw	0
  1422   0011DE  ECDD  F010         	call	___xxtofl
  1423   0011E2  C01A  F02C         	movff	?___xxtofl,___fldiv@a
  1424   0011E6  C01B  F02D         	movff	?___xxtofl+1,___fldiv@a+1
  1425   0011EA  C01C  F02E         	movff	?___xxtofl+2,___fldiv@a+2
  1426   0011EE  C01D  F02F         	movff	?___xxtofl+3,___fldiv@a+3
  1427   0011F2  0E00               	movlw	0
  1428   0011F4  6E28               	movwf	___fldiv@b^0,c
  1429   0011F6  0E24               	movlw	36
  1430   0011F8  6E29               	movwf	(___fldiv@b+1)^0,c
  1431   0011FA  0EF4               	movlw	244
  1432   0011FC  6E2A               	movwf	(___fldiv@b+2)^0,c
  1433   0011FE  0E4A               	movlw	74
  1434   001200  6E2B               	movwf	(___fldiv@b+3)^0,c
  1435   001202  EC10  F00F         	call	___fldiv	;wreg free
  1436   001206  C028  F0F8         	movff	?___fldiv,_USART_Baud_Rate_Calculation$5135
  1437   00120A  C029  F0F9         	movff	?___fldiv+1,_USART_Baud_Rate_Calculation$5135+1
  1438   00120E  C02A  F0FA         	movff	?___fldiv+2,_USART_Baud_Rate_Calculation$5135+2
  1439   001212  C02B  F0FB         	movff	?___fldiv+3,_USART_Baud_Rate_Calculation$5135+3
  1440   001216                     
  1441                           ;MCAL_Layer/USART/hal_usart.c: 252:             Baud_Rate_Temp_Value = ((8000000UL / (fl
      +                          oat)_usart->baudrate) / 16) - 1;
  1442   001216  0E00               	movlw	0
  1443   001218  6E2C               	movwf	___fldiv@a^0,c
  1444   00121A  0E00               	movlw	0
  1445   00121C  6E2D               	movwf	(___fldiv@a+1)^0,c
  1446   00121E  0E80               	movlw	128
  1447   001220  6E2E               	movwf	(___fldiv@a+2)^0,c
  1448   001222  0E41               	movlw	65
  1449   001224  6E2F               	movwf	(___fldiv@a+3)^0,c
  1450   001226  C0F8  F028         	movff	_USART_Baud_Rate_Calculation$5135,___fldiv@b
  1451   00122A  C0F9  F029         	movff	_USART_Baud_Rate_Calculation$5135+1,___fldiv@b+1
  1452   00122E  C0FA  F02A         	movff	_USART_Baud_Rate_Calculation$5135+2,___fldiv@b+2
  1453   001232  C0FB  F02B         	movff	_USART_Baud_Rate_Calculation$5135+3,___fldiv@b+3
  1454   001236  EC10  F00F         	call	___fldiv	;wreg free
  1455   00123A  C028  F0E6         	movff	?___fldiv,___fladd@b
  1456   00123E  C029  F0E7         	movff	?___fldiv+1,___fladd@b+1
  1457   001242  C02A  F0E8         	movff	?___fldiv+2,___fladd@b+2
  1458   001246  C02B  F0E9         	movff	?___fldiv+3,___fladd@b+3
  1459   00124A  0E00               	movlw	0
  1460   00124C  0100               	movlb	0	; () banked
  1461   00124E  6FEA               	movwf	___fladd@a& (0+255),b
  1462   001250  0E00               	movlw	0
  1463   001252  6FEB               	movwf	(___fladd@a+1)& (0+255),b
  1464   001254  0E80               	movlw	128
  1465   001256  6FEC               	movwf	(___fladd@a+2)& (0+255),b
  1466   001258  0EBF               	movlw	191
  1467   00125A  6FED               	movwf	(___fladd@a+3)& (0+255),b
  1468   00125C  EC94  F00A         	call	___fladd	;wreg free
  1469   001260  C0E6  F0F4         	movff	?___fladd,USART_Baud_Rate_Calculation@Baud_Rate_Temp_Value
  1470   001264  C0E7  F0F5         	movff	?___fladd+1,USART_Baud_Rate_Calculation@Baud_Rate_Temp_Value+1
  1471   001268  C0E8  F0F6         	movff	?___fladd+2,USART_Baud_Rate_Calculation@Baud_Rate_Temp_Value+2
  1472   00126C  C0E9  F0F7         	movff	?___fladd+3,USART_Baud_Rate_Calculation@Baud_Rate_Temp_Value+3
  1473                           
  1474                           ;MCAL_Layer/USART/hal_usart.c: 253:         break;
  1475   001270  EF74  F00A         	goto	l8292
  1476   001274                     l1509:
  1477                           
  1478                           ; BSR set to: 0
  1479                           ;MCAL_Layer/USART/hal_usart.c: 256:             TXSTAbits.SYNC = 0;
  1480   001274  98AC               	bcf	172,4,c	;volatile
  1481                           
  1482                           ;MCAL_Layer/USART/hal_usart.c: 257:             TXSTAbits.BRGH = 1;
  1483   001276  84AC               	bsf	172,2,c	;volatile
  1484                           
  1485                           ;MCAL_Layer/USART/hal_usart.c: 258:             BAUDCONbits.BRG16 = 1;
  1486   001278  86B8               	bsf	184,3,c	;volatile
  1487   00127A                     
  1488                           ; BSR set to: 0
  1489                           ;MCAL_Layer/USART/hal_usart.c: 259:             Baud_Rate_Temp_Value = ((8000000UL / (fl
      +                          oat)_usart->baudrate) / 4) - 1;
  1490   00127A  C045  FFD9         	movff	USART_Baud_Rate_Calculation@_usart,fsr2l
  1491   00127E  C046  FFDA         	movff	USART_Baud_Rate_Calculation@_usart+1,fsr2h
  1492   001282  CFDE F01A          	movff	postinc2,___xxtofl@val
  1493   001286  CFDE F01B          	movff	postinc2,___xxtofl@val+1
  1494   00128A  CFDE F01C          	movff	postinc2,___xxtofl@val+2
  1495   00128E  CFDE F01D          	movff	postinc2,___xxtofl@val+3
  1496   001292  0E00               	movlw	0
  1497   001294  ECDD  F010         	call	___xxtofl
  1498   001298  C01A  F02C         	movff	?___xxtofl,___fldiv@a
  1499   00129C  C01B  F02D         	movff	?___xxtofl+1,___fldiv@a+1
  1500   0012A0  C01C  F02E         	movff	?___xxtofl+2,___fldiv@a+2
  1501   0012A4  C01D  F02F         	movff	?___xxtofl+3,___fldiv@a+3
  1502   0012A8  0E00               	movlw	0
  1503   0012AA  6E28               	movwf	___fldiv@b^0,c
  1504   0012AC  0E24               	movlw	36
  1505   0012AE  6E29               	movwf	(___fldiv@b+1)^0,c
  1506   0012B0  0EF4               	movlw	244
  1507   0012B2  6E2A               	movwf	(___fldiv@b+2)^0,c
  1508   0012B4  0E4A               	movlw	74
  1509   0012B6  6E2B               	movwf	(___fldiv@b+3)^0,c
  1510   0012B8  EC10  F00F         	call	___fldiv	;wreg free
  1511   0012BC  C028  F0F8         	movff	?___fldiv,_USART_Baud_Rate_Calculation$5135
  1512   0012C0  C029  F0F9         	movff	?___fldiv+1,_USART_Baud_Rate_Calculation$5135+1
  1513   0012C4  C02A  F0FA         	movff	?___fldiv+2,_USART_Baud_Rate_Calculation$5135+2
  1514   0012C8  C02B  F0FB         	movff	?___fldiv+3,_USART_Baud_Rate_Calculation$5135+3
  1515   0012CC                     
  1516                           ;MCAL_Layer/USART/hal_usart.c: 259:             Baud_Rate_Temp_Value = ((8000000UL / (fl
      +                          oat)_usart->baudrate) / 4) - 1;
  1517   0012CC  0E00               	movlw	0
  1518   0012CE  6E2C               	movwf	___fldiv@a^0,c
  1519   0012D0  0E00               	movlw	0
  1520   0012D2  6E2D               	movwf	(___fldiv@a+1)^0,c
  1521   0012D4  0E80               	movlw	128
  1522   0012D6  6E2E               	movwf	(___fldiv@a+2)^0,c
  1523   0012D8  0E40               	movlw	64
  1524   0012DA  6E2F               	movwf	(___fldiv@a+3)^0,c
  1525   0012DC  C0F8  F028         	movff	_USART_Baud_Rate_Calculation$5135,___fldiv@b
  1526   0012E0  C0F9  F029         	movff	_USART_Baud_Rate_Calculation$5135+1,___fldiv@b+1
  1527   0012E4  C0FA  F02A         	movff	_USART_Baud_Rate_Calculation$5135+2,___fldiv@b+2
  1528   0012E8  C0FB  F02B         	movff	_USART_Baud_Rate_Calculation$5135+3,___fldiv@b+3
  1529   0012EC  EC10  F00F         	call	___fldiv	;wreg free
  1530   0012F0  C028  F0E6         	movff	?___fldiv,___fladd@b
  1531   0012F4  C029  F0E7         	movff	?___fldiv+1,___fladd@b+1
  1532   0012F8  C02A  F0E8         	movff	?___fldiv+2,___fladd@b+2
  1533   0012FC  C02B  F0E9         	movff	?___fldiv+3,___fladd@b+3
  1534   001300  0E00               	movlw	0
  1535   001302  0100               	movlb	0	; () banked
  1536   001304  6FEA               	movwf	___fladd@a& (0+255),b
  1537   001306  0E00               	movlw	0
  1538   001308  6FEB               	movwf	(___fladd@a+1)& (0+255),b
  1539   00130A  0E80               	movlw	128
  1540   00130C  6FEC               	movwf	(___fladd@a+2)& (0+255),b
  1541   00130E  0EBF               	movlw	191
  1542   001310  6FED               	movwf	(___fladd@a+3)& (0+255),b
  1543   001312  EC94  F00A         	call	___fladd	;wreg free
  1544   001316  C0E6  F0F4         	movff	?___fladd,USART_Baud_Rate_Calculation@Baud_Rate_Temp_Value
  1545   00131A  C0E7  F0F5         	movff	?___fladd+1,USART_Baud_Rate_Calculation@Baud_Rate_Temp_Value+1
  1546   00131E  C0E8  F0F6         	movff	?___fladd+2,USART_Baud_Rate_Calculation@Baud_Rate_Temp_Value+2
  1547   001322  C0E9  F0F7         	movff	?___fladd+3,USART_Baud_Rate_Calculation@Baud_Rate_Temp_Value+3
  1548                           
  1549                           ;MCAL_Layer/USART/hal_usart.c: 260:         break;
  1550   001326  EF74  F00A         	goto	l8292
  1551   00132A                     l1510:
  1552                           
  1553                           ; BSR set to: 0
  1554                           ;MCAL_Layer/USART/hal_usart.c: 263:             TXSTAbits.SYNC = 1;
  1555   00132A  88AC               	bsf	172,4,c	;volatile
  1556                           
  1557                           ;MCAL_Layer/USART/hal_usart.c: 264:             BAUDCONbits.BRG16 = 0;
  1558   00132C  96B8               	bcf	184,3,c	;volatile
  1559   00132E                     
  1560                           ; BSR set to: 0
  1561                           ;MCAL_Layer/USART/hal_usart.c: 265:             Baud_Rate_Temp_Value = ((8000000UL / (fl
      +                          oat)_usart->baudrate) / 4) - 1;
  1562   00132E  C045  FFD9         	movff	USART_Baud_Rate_Calculation@_usart,fsr2l
  1563   001332  C046  FFDA         	movff	USART_Baud_Rate_Calculation@_usart+1,fsr2h
  1564   001336  CFDE F01A          	movff	postinc2,___xxtofl@val
  1565   00133A  CFDE F01B          	movff	postinc2,___xxtofl@val+1
  1566   00133E  CFDE F01C          	movff	postinc2,___xxtofl@val+2
  1567   001342  CFDE F01D          	movff	postinc2,___xxtofl@val+3
  1568   001346  0E00               	movlw	0
  1569   001348  ECDD  F010         	call	___xxtofl
  1570   00134C  C01A  F02C         	movff	?___xxtofl,___fldiv@a
  1571   001350  C01B  F02D         	movff	?___xxtofl+1,___fldiv@a+1
  1572   001354  C01C  F02E         	movff	?___xxtofl+2,___fldiv@a+2
  1573   001358  C01D  F02F         	movff	?___xxtofl+3,___fldiv@a+3
  1574   00135C  0E00               	movlw	0
  1575   00135E  6E28               	movwf	___fldiv@b^0,c
  1576   001360  0E24               	movlw	36
  1577   001362  6E29               	movwf	(___fldiv@b+1)^0,c
  1578   001364  0EF4               	movlw	244
  1579   001366  6E2A               	movwf	(___fldiv@b+2)^0,c
  1580   001368  0E4A               	movlw	74
  1581   00136A  6E2B               	movwf	(___fldiv@b+3)^0,c
  1582   00136C  EC10  F00F         	call	___fldiv	;wreg free
  1583   001370  C028  F0F8         	movff	?___fldiv,_USART_Baud_Rate_Calculation$5135
  1584   001374  C029  F0F9         	movff	?___fldiv+1,_USART_Baud_Rate_Calculation$5135+1
  1585   001378  C02A  F0FA         	movff	?___fldiv+2,_USART_Baud_Rate_Calculation$5135+2
  1586   00137C  C02B  F0FB         	movff	?___fldiv+3,_USART_Baud_Rate_Calculation$5135+3
  1587   001380                     
  1588                           ;MCAL_Layer/USART/hal_usart.c: 265:             Baud_Rate_Temp_Value = ((8000000UL / (fl
      +                          oat)_usart->baudrate) / 4) - 1;
  1589   001380  0E00               	movlw	0
  1590   001382  6E2C               	movwf	___fldiv@a^0,c
  1591   001384  0E00               	movlw	0
  1592   001386  6E2D               	movwf	(___fldiv@a+1)^0,c
  1593   001388  0E80               	movlw	128
  1594   00138A  6E2E               	movwf	(___fldiv@a+2)^0,c
  1595   00138C  0E40               	movlw	64
  1596   00138E  6E2F               	movwf	(___fldiv@a+3)^0,c
  1597   001390  C0F8  F028         	movff	_USART_Baud_Rate_Calculation$5135,___fldiv@b
  1598   001394  C0F9  F029         	movff	_USART_Baud_Rate_Calculation$5135+1,___fldiv@b+1
  1599   001398  C0FA  F02A         	movff	_USART_Baud_Rate_Calculation$5135+2,___fldiv@b+2
  1600   00139C  C0FB  F02B         	movff	_USART_Baud_Rate_Calculation$5135+3,___fldiv@b+3
  1601   0013A0  EC10  F00F         	call	___fldiv	;wreg free
  1602   0013A4  C028  F0E6         	movff	?___fldiv,___fladd@b
  1603   0013A8  C029  F0E7         	movff	?___fldiv+1,___fladd@b+1
  1604   0013AC  C02A  F0E8         	movff	?___fldiv+2,___fladd@b+2
  1605   0013B0  C02B  F0E9         	movff	?___fldiv+3,___fladd@b+3
  1606   0013B4  0E00               	movlw	0
  1607   0013B6  0100               	movlb	0	; () banked
  1608   0013B8  6FEA               	movwf	___fladd@a& (0+255),b
  1609   0013BA  0E00               	movlw	0
  1610   0013BC  6FEB               	movwf	(___fladd@a+1)& (0+255),b
  1611   0013BE  0E80               	movlw	128
  1612   0013C0  6FEC               	movwf	(___fladd@a+2)& (0+255),b
  1613   0013C2  0EBF               	movlw	191
  1614   0013C4  6FED               	movwf	(___fladd@a+3)& (0+255),b
  1615   0013C6  EC94  F00A         	call	___fladd	;wreg free
  1616   0013CA  C0E6  F0F4         	movff	?___fladd,USART_Baud_Rate_Calculation@Baud_Rate_Temp_Value
  1617   0013CE  C0E7  F0F5         	movff	?___fladd+1,USART_Baud_Rate_Calculation@Baud_Rate_Temp_Value+1
  1618   0013D2  C0E8  F0F6         	movff	?___fladd+2,USART_Baud_Rate_Calculation@Baud_Rate_Temp_Value+2
  1619   0013D6  C0E9  F0F7         	movff	?___fladd+3,USART_Baud_Rate_Calculation@Baud_Rate_Temp_Value+3
  1620                           
  1621                           ;MCAL_Layer/USART/hal_usart.c: 266:         break;
  1622   0013DA  EF74  F00A         	goto	l8292
  1623   0013DE                     l1511:
  1624                           
  1625                           ; BSR set to: 0
  1626                           ;MCAL_Layer/USART/hal_usart.c: 269:             TXSTAbits.SYNC = 1;
  1627   0013DE  88AC               	bsf	172,4,c	;volatile
  1628                           
  1629                           ;MCAL_Layer/USART/hal_usart.c: 270:             BAUDCONbits.BRG16 = 1;
  1630   0013E0  86B8               	bsf	184,3,c	;volatile
  1631   0013E2                     
  1632                           ; BSR set to: 0
  1633                           ;MCAL_Layer/USART/hal_usart.c: 271:             Baud_Rate_Temp_Value = ((8000000UL / (fl
      +                          oat)_usart->baudrate) / 4) - 1;
  1634   0013E2  C045  FFD9         	movff	USART_Baud_Rate_Calculation@_usart,fsr2l
  1635   0013E6  C046  FFDA         	movff	USART_Baud_Rate_Calculation@_usart+1,fsr2h
  1636   0013EA  CFDE F01A          	movff	postinc2,___xxtofl@val
  1637   0013EE  CFDE F01B          	movff	postinc2,___xxtofl@val+1
  1638   0013F2  CFDE F01C          	movff	postinc2,___xxtofl@val+2
  1639   0013F6  CFDE F01D          	movff	postinc2,___xxtofl@val+3
  1640   0013FA  0E00               	movlw	0
  1641   0013FC  ECDD  F010         	call	___xxtofl
  1642   001400  C01A  F02C         	movff	?___xxtofl,___fldiv@a
  1643   001404  C01B  F02D         	movff	?___xxtofl+1,___fldiv@a+1
  1644   001408  C01C  F02E         	movff	?___xxtofl+2,___fldiv@a+2
  1645   00140C  C01D  F02F         	movff	?___xxtofl+3,___fldiv@a+3
  1646   001410  0E00               	movlw	0
  1647   001412  6E28               	movwf	___fldiv@b^0,c
  1648   001414  0E24               	movlw	36
  1649   001416  6E29               	movwf	(___fldiv@b+1)^0,c
  1650   001418  0EF4               	movlw	244
  1651   00141A  6E2A               	movwf	(___fldiv@b+2)^0,c
  1652   00141C  0E4A               	movlw	74
  1653   00141E  6E2B               	movwf	(___fldiv@b+3)^0,c
  1654   001420  EC10  F00F         	call	___fldiv	;wreg free
  1655   001424  C028  F0F8         	movff	?___fldiv,_USART_Baud_Rate_Calculation$5135
  1656   001428  C029  F0F9         	movff	?___fldiv+1,_USART_Baud_Rate_Calculation$5135+1
  1657   00142C  C02A  F0FA         	movff	?___fldiv+2,_USART_Baud_Rate_Calculation$5135+2
  1658   001430  C02B  F0FB         	movff	?___fldiv+3,_USART_Baud_Rate_Calculation$5135+3
  1659   001434                     
  1660                           ;MCAL_Layer/USART/hal_usart.c: 271:             Baud_Rate_Temp_Value = ((8000000UL / (fl
      +                          oat)_usart->baudrate) / 4) - 1;
  1661   001434  0E00               	movlw	0
  1662   001436  6E2C               	movwf	___fldiv@a^0,c
  1663   001438  0E00               	movlw	0
  1664   00143A  6E2D               	movwf	(___fldiv@a+1)^0,c
  1665   00143C  0E80               	movlw	128
  1666   00143E  6E2E               	movwf	(___fldiv@a+2)^0,c
  1667   001440  0E40               	movlw	64
  1668   001442  6E2F               	movwf	(___fldiv@a+3)^0,c
  1669   001444  C0F8  F028         	movff	_USART_Baud_Rate_Calculation$5135,___fldiv@b
  1670   001448  C0F9  F029         	movff	_USART_Baud_Rate_Calculation$5135+1,___fldiv@b+1
  1671   00144C  C0FA  F02A         	movff	_USART_Baud_Rate_Calculation$5135+2,___fldiv@b+2
  1672   001450  C0FB  F02B         	movff	_USART_Baud_Rate_Calculation$5135+3,___fldiv@b+3
  1673   001454  EC10  F00F         	call	___fldiv	;wreg free
  1674   001458  C028  F0E6         	movff	?___fldiv,___fladd@b
  1675   00145C  C029  F0E7         	movff	?___fldiv+1,___fladd@b+1
  1676   001460  C02A  F0E8         	movff	?___fldiv+2,___fladd@b+2
  1677   001464  C02B  F0E9         	movff	?___fldiv+3,___fladd@b+3
  1678   001468  0E00               	movlw	0
  1679   00146A  0100               	movlb	0	; () banked
  1680   00146C  6FEA               	movwf	___fladd@a& (0+255),b
  1681   00146E  0E00               	movlw	0
  1682   001470  6FEB               	movwf	(___fladd@a+1)& (0+255),b
  1683   001472  0E80               	movlw	128
  1684   001474  6FEC               	movwf	(___fladd@a+2)& (0+255),b
  1685   001476  0EBF               	movlw	191
  1686   001478  6FED               	movwf	(___fladd@a+3)& (0+255),b
  1687   00147A  EC94  F00A         	call	___fladd	;wreg free
  1688   00147E  C0E6  F0F4         	movff	?___fladd,USART_Baud_Rate_Calculation@Baud_Rate_Temp_Value
  1689   001482  C0E7  F0F5         	movff	?___fladd+1,USART_Baud_Rate_Calculation@Baud_Rate_Temp_Value+1
  1690   001486  C0E8  F0F6         	movff	?___fladd+2,USART_Baud_Rate_Calculation@Baud_Rate_Temp_Value+2
  1691   00148A  C0E9  F0F7         	movff	?___fladd+3,USART_Baud_Rate_Calculation@Baud_Rate_Temp_Value+3
  1692                           
  1693                           ;MCAL_Layer/USART/hal_usart.c: 272:         break;
  1694   00148E  EF74  F00A         	goto	l8292
  1695   001492                     l8290:
  1696                           
  1697                           ; BSR set to: 0
  1698   001492  EE20 F004          	lfsr	2,4
  1699   001496  5045               	movf	USART_Baud_Rate_Calculation@_usart^0,w,c
  1700   001498  26D9               	addwf	fsr2l,f,c
  1701   00149A  5046               	movf	(USART_Baud_Rate_Calculation@_usart+1)^0,w,c
  1702   00149C  22DA               	addwfc	fsr2h,f,c
  1703   00149E  50DF               	movf	indf2,w,c
  1704   0014A0  6FF2               	movwf	??_USART_Baud_Rate_Calculation& (0+255),b
  1705   0014A2  6BF3               	clrf	(??_USART_Baud_Rate_Calculation+1)& (0+255),b
  1706                           
  1707                           ; Switch on 2 bytes has been partitioned into a top level switch of size 1, and 1 sub-sw
      +                          itches
  1708                           ; Switch size 1, requested type "simple"
  1709                           ; Number of cases is 1, Range of values is 0 to 0
  1710                           ; switch strategies available:
  1711                           ; Name         Instructions Cycles
  1712                           ; simple_byte            4     3 (average)
  1713                           ;	Chosen strategy is simple_byte
  1714   0014A4  51F3               	movf	(??_USART_Baud_Rate_Calculation+1)& (0+255),w,b
  1715   0014A6  0A00               	xorlw	0	; case 0
  1716   0014A8  B4D8               	btfsc	status,2,c
  1717   0014AA  EF59  F00A         	goto	l8578
  1718   0014AE  EF74  F00A         	goto	l8292
  1719   0014B2                     l8578:
  1720                           
  1721                           ; BSR set to: 0
  1722                           ; Switch size 1, requested type "simple"
  1723                           ; Number of cases is 6, Range of values is 0 to 5
  1724                           ; switch strategies available:
  1725                           ; Name         Instructions Cycles
  1726                           ; simple_byte           19    10 (average)
  1727                           ;	Chosen strategy is simple_byte
  1728   0014B2  51F2               	movf	??_USART_Baud_Rate_Calculation& (0+255),w,b
  1729   0014B4  0A00               	xorlw	0	; case 0
  1730   0014B6  B4D8               	btfsc	status,2,c
  1731   0014B8  EF29  F008         	goto	l1505
  1732   0014BC  0A01               	xorlw	1	; case 1
  1733   0014BE  B4D8               	btfsc	status,2,c
  1734   0014C0  EF84  F008         	goto	l1507
  1735   0014C4  0A03               	xorlw	3	; case 2
  1736   0014C6  B4D8               	btfsc	status,2,c
  1737   0014C8  EFDF  F008         	goto	l1508
  1738   0014CC  0A01               	xorlw	1	; case 3
  1739   0014CE  B4D8               	btfsc	status,2,c
  1740   0014D0  EF3A  F009         	goto	l1509
  1741   0014D4  0A07               	xorlw	7	; case 4
  1742   0014D6  B4D8               	btfsc	status,2,c
  1743   0014D8  EF95  F009         	goto	l1510
  1744   0014DC  0A01               	xorlw	1	; case 5
  1745   0014DE  B4D8               	btfsc	status,2,c
  1746   0014E0  EFEF  F009         	goto	l1511
  1747   0014E4  EF74  F00A         	goto	l8292
  1748   0014E8                     l8292:
  1749                           
  1750                           ;MCAL_Layer/USART/hal_usart.c: 276:     SPBRG = (uint8)((uint32)Baud_Rate_Temp_Value);
  1751   0014E8  C0F4  F01A         	movff	USART_Baud_Rate_Calculation@Baud_Rate_Temp_Value,___fltol@f1
  1752   0014EC  C0F5  F01B         	movff	USART_Baud_Rate_Calculation@Baud_Rate_Temp_Value+1,___fltol@f1+1
  1753   0014F0  C0F6  F01C         	movff	USART_Baud_Rate_Calculation@Baud_Rate_Temp_Value+2,___fltol@f1+2
  1754   0014F4  C0F7  F01D         	movff	USART_Baud_Rate_Calculation@Baud_Rate_Temp_Value+3,___fltol@f1+3
  1755   0014F8  ECA8  F014         	call	___fltol	;wreg free
  1756   0014FC  501A               	movf	?___fltol^0,w,c
  1757   0014FE  6EAF               	movwf	175,c	;volatile
  1758                           
  1759                           ;MCAL_Layer/USART/hal_usart.c: 277:     SPBRGH = (uint8)(((uint32)Baud_Rate_Temp_Value) 
      +                          >> 8);
  1760   001500  C0F4  F01A         	movff	USART_Baud_Rate_Calculation@Baud_Rate_Temp_Value,___fltol@f1
  1761   001504  C0F5  F01B         	movff	USART_Baud_Rate_Calculation@Baud_Rate_Temp_Value+1,___fltol@f1+1
  1762   001508  C0F6  F01C         	movff	USART_Baud_Rate_Calculation@Baud_Rate_Temp_Value+2,___fltol@f1+2
  1763   00150C  C0F7  F01D         	movff	USART_Baud_Rate_Calculation@Baud_Rate_Temp_Value+3,___fltol@f1+3
  1764   001510  ECA8  F014         	call	___fltol	;wreg free
  1765   001514  C01B  F01A         	movff	?___fltol+1,?___fltol
  1766   001518  C01C  F01B         	movff	?___fltol+2,?___fltol+1
  1767   00151C  C01D  F01C         	movff	?___fltol+3,?___fltol+2
  1768   001520  6A1D               	clrf	(?___fltol+3)^0,c
  1769   001522  501A               	movf	?___fltol^0,w,c
  1770   001524  6EB0               	movwf	176,c	;volatile
  1771   001526  0012               	return		;funcret
  1772   001528                     __end_of_USART_Baud_Rate_Calculation:
  1773                           	callstack 0
  1774                           
  1775 ;; *************** function ___xxtofl *****************
  1776 ;; Defined at:
  1777 ;;		line 10 in file "C:\Program Files\Microchip\xc8\v2.41\pic\sources\c99\common\xxtofl.c"
  1778 ;; Parameters:    Size  Location     Type
  1779 ;;  sign            1    wreg     unsigned char 
  1780 ;;  val             4   25[COMRAM] long 
  1781 ;; Auto vars:     Size  Location     Type
  1782 ;;  sign            1   33[COMRAM] unsigned char 
  1783 ;;  arg             4   35[COMRAM] unsigned long 
  1784 ;;  exp             1   34[COMRAM] unsigned char 
  1785 ;; Return value:  Size  Location     Type
  1786 ;;                  4   25[COMRAM] unsigned char 
  1787 ;; Registers used:
  1788 ;;		wreg, status,2, status,0
  1789 ;; Tracked objects:
  1790 ;;		On entry : 0/0
  1791 ;;		On exit  : 0/0
  1792 ;;		Unchanged: 0/0
  1793 ;; Data sizes:     COMRAM   BANK0   BANK1   BANK2   BANK3   BANK4   BANK5   BANK6   BANK7   BANK8   BANK9  BANK10  BANK1
      +1  BANK12  BANK13  BANK14  BANK15
  1794 ;;      Params:         4       0       0       0       0       0       0       0       0       0       0       0       
      +0       0       0       0       0
  1795 ;;      Locals:         6       0       0       0       0       0       0       0       0       0       0       0       
      +0       0       0       0       0
  1796 ;;      Temps:          4       0       0       0       0       0       0       0       0       0       0       0       
      +0       0       0       0       0
  1797 ;;      Totals:        14       0       0       0       0       0       0       0       0       0       0       0       
      +0       0       0       0       0
  1798 ;;Total ram usage:       14 bytes
  1799 ;; Hardware stack levels used: 1
  1800 ;; Hardware stack levels required when called: 5
  1801 ;; This function calls:
  1802 ;;		Nothing
  1803 ;; This function is called by:
  1804 ;;		_USART_Baud_Rate_Calculation
  1805 ;;		_MSSP_I2C_Master_Mode_Clock_Configurations
  1806 ;; This function uses a non-reentrant model
  1807 ;;
  1808                           
  1809                           	psect	text4
  1810   0021BA                     __ptext4:
  1811                           	callstack 0
  1812   0021BA                     ___xxtofl:
  1813                           	callstack 22
  1814                           
  1815                           ;incstack = 0
  1816                           ;___xxtofl@sign stored from wreg
  1817   0021BA  6E22               	movwf	___xxtofl@sign^0,c
  1818   0021BC  5022               	movf	___xxtofl@sign^0,w,c
  1819   0021BE  B4D8               	btfsc	status,2,c
  1820   0021C0  EFE4  F010         	goto	u7791
  1821   0021C4  EFE6  F010         	goto	u7790
  1822   0021C8                     u7791:
  1823   0021C8  EF08  F011         	goto	l2275
  1824   0021CC                     u7790:
  1825   0021CC  BE1D               	btfsc	(___xxtofl@val+3)^0,7,c
  1826   0021CE  EFED  F010         	goto	u7800
  1827   0021D2  EFEB  F010         	goto	u7801
  1828   0021D6                     u7801:
  1829   0021D6  EF08  F011         	goto	l2275
  1830   0021DA                     u7800:
  1831   0021DA  C01A  F01E         	movff	___xxtofl@val,??___xxtofl
  1832   0021DE  C01B  F01F         	movff	___xxtofl@val+1,??___xxtofl+1
  1833   0021E2  C01C  F020         	movff	___xxtofl@val+2,??___xxtofl+2
  1834   0021E6  C01D  F021         	movff	___xxtofl@val+3,??___xxtofl+3
  1835   0021EA  1E1E               	comf	??___xxtofl^0,f,c
  1836   0021EC  1E1F               	comf	(??___xxtofl+1)^0,f,c
  1837   0021EE  1E20               	comf	(??___xxtofl+2)^0,f,c
  1838   0021F0  1E21               	comf	(??___xxtofl+3)^0,f,c
  1839   0021F2  2A1E               	incf	??___xxtofl^0,f,c
  1840   0021F4  0E00               	movlw	0
  1841   0021F6  221F               	addwfc	(??___xxtofl+1)^0,f,c
  1842   0021F8  2220               	addwfc	(??___xxtofl+2)^0,f,c
  1843   0021FA  2221               	addwfc	(??___xxtofl+3)^0,f,c
  1844   0021FC  C01E  F024         	movff	??___xxtofl,___xxtofl@arg
  1845   002200  C01F  F025         	movff	??___xxtofl+1,___xxtofl@arg+1
  1846   002204  C020  F026         	movff	??___xxtofl+2,___xxtofl@arg+2
  1847   002208  C021  F027         	movff	??___xxtofl+3,___xxtofl@arg+3
  1848   00220C  EF10  F011         	goto	l8224
  1849   002210                     l2275:
  1850   002210  C01A  F024         	movff	___xxtofl@val,___xxtofl@arg
  1851   002214  C01B  F025         	movff	___xxtofl@val+1,___xxtofl@arg+1
  1852   002218  C01C  F026         	movff	___xxtofl@val+2,___xxtofl@arg+2
  1853   00221C  C01D  F027         	movff	___xxtofl@val+3,___xxtofl@arg+3
  1854   002220                     l8224:
  1855   002220  501A               	movf	___xxtofl@val^0,w,c
  1856   002222  101B               	iorwf	(___xxtofl@val+1)^0,w,c
  1857   002224  101C               	iorwf	(___xxtofl@val+2)^0,w,c
  1858   002226  101D               	iorwf	(___xxtofl@val+3)^0,w,c
  1859   002228  A4D8               	btfss	status,2,c
  1860   00222A  EF19  F011         	goto	u7811
  1861   00222E  EF1B  F011         	goto	u7810
  1862   002232                     u7811:
  1863   002232  EF25  F011         	goto	l8230
  1864   002236                     u7810:
  1865   002236  0E00               	movlw	0
  1866   002238  6E1A               	movwf	?___xxtofl^0,c
  1867   00223A  0E00               	movlw	0
  1868   00223C  6E1B               	movwf	(?___xxtofl+1)^0,c
  1869   00223E  0E00               	movlw	0
  1870   002240  6E1C               	movwf	(?___xxtofl+2)^0,c
  1871   002242  0E00               	movlw	0
  1872   002244  6E1D               	movwf	(?___xxtofl+3)^0,c
  1873   002246  EFB6  F011         	goto	l2278
  1874   00224A                     l8230:
  1875   00224A  0E96               	movlw	150
  1876   00224C  6E23               	movwf	___xxtofl@exp^0,c
  1877   00224E  EF2F  F011         	goto	l8234
  1878   002252                     l8232:
  1879   002252  2A23               	incf	___xxtofl@exp^0,f,c
  1880   002254  90D8               	bcf	status,0,c
  1881   002256  3227               	rrcf	(___xxtofl@arg+3)^0,f,c
  1882   002258  3226               	rrcf	(___xxtofl@arg+2)^0,f,c
  1883   00225A  3225               	rrcf	(___xxtofl@arg+1)^0,f,c
  1884   00225C  3224               	rrcf	___xxtofl@arg^0,f,c
  1885   00225E                     l8234:
  1886   00225E  0E00               	movlw	0
  1887   002260  1424               	andwf	___xxtofl@arg^0,w,c
  1888   002262  6E1E               	movwf	??___xxtofl^0,c
  1889   002264  0E00               	movlw	0
  1890   002266  1425               	andwf	(___xxtofl@arg+1)^0,w,c
  1891   002268  6E1F               	movwf	(??___xxtofl+1)^0,c
  1892   00226A  0E00               	movlw	0
  1893   00226C  1426               	andwf	(___xxtofl@arg+2)^0,w,c
  1894   00226E  6E20               	movwf	(??___xxtofl+2)^0,c
  1895   002270  0EFE               	movlw	254
  1896   002272  1427               	andwf	(___xxtofl@arg+3)^0,w,c
  1897   002274  6E21               	movwf	(??___xxtofl+3)^0,c
  1898   002276  501E               	movf	??___xxtofl^0,w,c
  1899   002278  101F               	iorwf	(??___xxtofl+1)^0,w,c
  1900   00227A  1020               	iorwf	(??___xxtofl+2)^0,w,c
  1901   00227C  1021               	iorwf	(??___xxtofl+3)^0,w,c
  1902   00227E  A4D8               	btfss	status,2,c
  1903   002280  EF44  F011         	goto	u7821
  1904   002284  EF46  F011         	goto	u7820
  1905   002288                     u7821:
  1906   002288  EF29  F011         	goto	l8232
  1907   00228C                     u7820:
  1908   00228C  EF54  F011         	goto	l2282
  1909   002290                     l8236:
  1910   002290  2A23               	incf	___xxtofl@exp^0,f,c
  1911   002292  0E01               	movlw	1
  1912   002294  2624               	addwf	___xxtofl@arg^0,f,c
  1913   002296  0E00               	movlw	0
  1914   002298  2225               	addwfc	(___xxtofl@arg+1)^0,f,c
  1915   00229A  2226               	addwfc	(___xxtofl@arg+2)^0,f,c
  1916   00229C  2227               	addwfc	(___xxtofl@arg+3)^0,f,c
  1917   00229E  90D8               	bcf	status,0,c
  1918   0022A0  3227               	rrcf	(___xxtofl@arg+3)^0,f,c
  1919   0022A2  3226               	rrcf	(___xxtofl@arg+2)^0,f,c
  1920   0022A4  3225               	rrcf	(___xxtofl@arg+1)^0,f,c
  1921   0022A6  3224               	rrcf	___xxtofl@arg^0,f,c
  1922   0022A8                     l2282:
  1923   0022A8  0E00               	movlw	0
  1924   0022AA  1424               	andwf	___xxtofl@arg^0,w,c
  1925   0022AC  6E1E               	movwf	??___xxtofl^0,c
  1926   0022AE  0E00               	movlw	0
  1927   0022B0  1425               	andwf	(___xxtofl@arg+1)^0,w,c
  1928   0022B2  6E1F               	movwf	(??___xxtofl+1)^0,c
  1929   0022B4  0E00               	movlw	0
  1930   0022B6  1426               	andwf	(___xxtofl@arg+2)^0,w,c
  1931   0022B8  6E20               	movwf	(??___xxtofl+2)^0,c
  1932   0022BA  0EFF               	movlw	255
  1933   0022BC  1427               	andwf	(___xxtofl@arg+3)^0,w,c
  1934   0022BE  6E21               	movwf	(??___xxtofl+3)^0,c
  1935   0022C0  501E               	movf	??___xxtofl^0,w,c
  1936   0022C2  101F               	iorwf	(??___xxtofl+1)^0,w,c
  1937   0022C4  1020               	iorwf	(??___xxtofl+2)^0,w,c
  1938   0022C6  1021               	iorwf	(??___xxtofl+3)^0,w,c
  1939   0022C8  A4D8               	btfss	status,2,c
  1940   0022CA  EF69  F011         	goto	u7831
  1941   0022CE  EF6B  F011         	goto	u7830
  1942   0022D2                     u7831:
  1943   0022D2  EF48  F011         	goto	l8236
  1944   0022D6                     u7830:
  1945   0022D6  EF73  F011         	goto	l8244
  1946   0022DA                     l8242:
  1947   0022DA  0623               	decf	___xxtofl@exp^0,f,c
  1948   0022DC  90D8               	bcf	status,0,c
  1949   0022DE  3624               	rlcf	___xxtofl@arg^0,f,c
  1950   0022E0  3625               	rlcf	(___xxtofl@arg+1)^0,f,c
  1951   0022E2  3626               	rlcf	(___xxtofl@arg+2)^0,f,c
  1952   0022E4  3627               	rlcf	(___xxtofl@arg+3)^0,f,c
  1953   0022E6                     l8244:
  1954   0022E6  BE26               	btfsc	(___xxtofl@arg+2)^0,7,c
  1955   0022E8  EF78  F011         	goto	u7841
  1956   0022EC  EF7A  F011         	goto	u7840
  1957   0022F0                     u7841:
  1958   0022F0  EF82  F011         	goto	l2289
  1959   0022F4                     u7840:
  1960   0022F4  0E02               	movlw	2
  1961   0022F6  6023               	cpfslt	___xxtofl@exp^0,c
  1962   0022F8  EF80  F011         	goto	u7851
  1963   0022FC  EF82  F011         	goto	u7850
  1964   002300                     u7851:
  1965   002300  EF6D  F011         	goto	l8242
  1966   002304                     u7850:
  1967   002304                     l2289:
  1968   002304  B023               	btfsc	___xxtofl@exp^0,0,c
  1969   002306  EF87  F011         	goto	u7861
  1970   00230A  EF89  F011         	goto	u7860
  1971   00230E                     u7861:
  1972   00230E  EF8A  F011         	goto	l8250
  1973   002312                     u7860:
  1974   002312  9E26               	bcf	(___xxtofl@arg+2)^0,7,c
  1975   002314                     l8250:
  1976   002314  90D8               	bcf	status,0,c
  1977   002316  3223               	rrcf	___xxtofl@exp^0,f,c
  1978   002318  C023  F01E         	movff	___xxtofl@exp,??___xxtofl
  1979   00231C  6A1F               	clrf	(??___xxtofl+1)^0,c
  1980   00231E  6A20               	clrf	(??___xxtofl+2)^0,c
  1981   002320  6A21               	clrf	(??___xxtofl+3)^0,c
  1982   002322  C01E  F021         	movff	??___xxtofl,??___xxtofl+3
  1983   002326  6A20               	clrf	(??___xxtofl+2)^0,c
  1984   002328  6A1F               	clrf	(??___xxtofl+1)^0,c
  1985   00232A  6A1E               	clrf	??___xxtofl^0,c
  1986   00232C  501E               	movf	??___xxtofl^0,w,c
  1987   00232E  1224               	iorwf	___xxtofl@arg^0,f,c
  1988   002330  501F               	movf	(??___xxtofl+1)^0,w,c
  1989   002332  1225               	iorwf	(___xxtofl@arg+1)^0,f,c
  1990   002334  5020               	movf	(??___xxtofl+2)^0,w,c
  1991   002336  1226               	iorwf	(___xxtofl@arg+2)^0,f,c
  1992   002338  5021               	movf	(??___xxtofl+3)^0,w,c
  1993   00233A  1227               	iorwf	(___xxtofl@arg+3)^0,f,c
  1994   00233C  5022               	movf	___xxtofl@sign^0,w,c
  1995   00233E  B4D8               	btfsc	status,2,c
  1996   002340  EFA4  F011         	goto	u7871
  1997   002344  EFA6  F011         	goto	u7870
  1998   002348                     u7871:
  1999   002348  EFAE  F011         	goto	l8260
  2000   00234C                     u7870:
  2001   00234C  BE1D               	btfsc	(___xxtofl@val+3)^0,7,c
  2002   00234E  EFAD  F011         	goto	u7880
  2003   002352  EFAB  F011         	goto	u7881
  2004   002356                     u7881:
  2005   002356  EFAE  F011         	goto	l8260
  2006   00235A                     u7880:
  2007   00235A  8E27               	bsf	(___xxtofl@arg+3)^0,7,c
  2008   00235C                     l8260:
  2009   00235C  C024  F01A         	movff	___xxtofl@arg,?___xxtofl
  2010   002360  C025  F01B         	movff	___xxtofl@arg+1,?___xxtofl+1
  2011   002364  C026  F01C         	movff	___xxtofl@arg+2,?___xxtofl+2
  2012   002368  C027  F01D         	movff	___xxtofl@arg+3,?___xxtofl+3
  2013   00236C                     l2278:
  2014   00236C  0012               	return		;funcret
  2015   00236E                     __end_of___xxtofl:
  2016                           	callstack 0
  2017                           
  2018 ;; *************** function ___fltol *****************
  2019 ;; Defined at:
  2020 ;;		line 43 in file "C:\Program Files\Microchip\xc8\v2.41\pic\sources\c99\common\fltol.c"
  2021 ;; Parameters:    Size  Location     Type
  2022 ;;  f1              4   25[COMRAM] unsigned char 
  2023 ;; Auto vars:     Size  Location     Type
  2024 ;;  exp1            1   34[COMRAM] unsigned char 
  2025 ;;  sign1           1   33[COMRAM] unsigned char 
  2026 ;; Return value:  Size  Location     Type
  2027 ;;                  4   25[COMRAM] long 
  2028 ;; Registers used:
  2029 ;;		wreg, status,2, status,0
  2030 ;; Tracked objects:
  2031 ;;		On entry : 0/0
  2032 ;;		On exit  : 0/0
  2033 ;;		Unchanged: 0/0
  2034 ;; Data sizes:     COMRAM   BANK0   BANK1   BANK2   BANK3   BANK4   BANK5   BANK6   BANK7   BANK8   BANK9  BANK10  BANK1
      +1  BANK12  BANK13  BANK14  BANK15
  2035 ;;      Params:         4       0       0       0       0       0       0       0       0       0       0       0       
      +0       0       0       0       0
  2036 ;;      Locals:         2       0       0       0       0       0       0       0       0       0       0       0       
      +0       0       0       0       0
  2037 ;;      Temps:          4       0       0       0       0       0       0       0       0       0       0       0       
      +0       0       0       0       0
  2038 ;;      Totals:        10       0       0       0       0       0       0       0       0       0       0       0       
      +0       0       0       0       0
  2039 ;;Total ram usage:       10 bytes
  2040 ;; Hardware stack levels used: 1
  2041 ;; Hardware stack levels required when called: 5
  2042 ;; This function calls:
  2043 ;;		Nothing
  2044 ;; This function is called by:
  2045 ;;		_USART_Baud_Rate_Calculation
  2046 ;;		_MSSP_I2C_Master_Mode_Clock_Configurations
  2047 ;; This function uses a non-reentrant model
  2048 ;;
  2049                           
  2050                           	psect	text5
  2051   002950                     __ptext5:
  2052                           	callstack 0
  2053   002950                     ___fltol:
  2054                           	callstack 22
  2055   002950  341C               	rlcf	(___fltol@f1+2)^0,w,c
  2056   002952  341D               	rlcf	(___fltol@f1+3)^0,w,c
  2057   002954  6E23               	movwf	___fltol@exp1^0,c
  2058   002956  5023               	movf	___fltol@exp1^0,w,c
  2059   002958  A4D8               	btfss	status,2,c
  2060   00295A  EFB1  F014         	goto	u7721
  2061   00295E  EFB3  F014         	goto	u7720
  2062   002962                     u7721:
  2063   002962  EFBD  F014         	goto	l8180
  2064   002966                     u7720:
  2065   002966                     l8176:
  2066   002966  0E00               	movlw	0
  2067   002968  6E1A               	movwf	?___fltol^0,c
  2068   00296A  0E00               	movlw	0
  2069   00296C  6E1B               	movwf	(?___fltol+1)^0,c
  2070   00296E  0E00               	movlw	0
  2071   002970  6E1C               	movwf	(?___fltol+2)^0,c
  2072   002972  0E00               	movlw	0
  2073   002974  6E1D               	movwf	(?___fltol+3)^0,c
  2074   002976  EF2A  F015         	goto	l1917
  2075   00297A                     l8180:
  2076   00297A  C01A  F01E         	movff	___fltol@f1,??___fltol
  2077   00297E  C01B  F01F         	movff	___fltol@f1+1,??___fltol+1
  2078   002982  C01C  F020         	movff	___fltol@f1+2,??___fltol+2
  2079   002986  C01D  F021         	movff	___fltol@f1+3,??___fltol+3
  2080   00298A  0E20               	movlw	32
  2081   00298C  EFCD  F014         	goto	u7730
  2082   002990                     u7735:
  2083   002990  90D8               	bcf	status,0,c
  2084   002992  3221               	rrcf	(??___fltol+3)^0,f,c
  2085   002994  3220               	rrcf	(??___fltol+2)^0,f,c
  2086   002996  321F               	rrcf	(??___fltol+1)^0,f,c
  2087   002998  321E               	rrcf	??___fltol^0,f,c
  2088   00299A                     u7730:
  2089   00299A  2EE8               	decfsz	wreg,f,c
  2090   00299C  EFC8  F014         	goto	u7735
  2091   0029A0  501E               	movf	??___fltol^0,w,c
  2092   0029A2  6E22               	movwf	___fltol@sign1^0,c
  2093   0029A4  8E1C               	bsf	(___fltol@f1+2)^0,7,c
  2094   0029A6  0EFF               	movlw	255
  2095   0029A8  161A               	andwf	___fltol@f1^0,f,c
  2096   0029AA  0EFF               	movlw	255
  2097   0029AC  161B               	andwf	(___fltol@f1+1)^0,f,c
  2098   0029AE  0EFF               	movlw	255
  2099   0029B0  161C               	andwf	(___fltol@f1+2)^0,f,c
  2100   0029B2  0E00               	movlw	0
  2101   0029B4  161D               	andwf	(___fltol@f1+3)^0,f,c
  2102   0029B6  0E96               	movlw	150
  2103   0029B8  5E23               	subwf	___fltol@exp1^0,f,c
  2104   0029BA  BE23               	btfsc	___fltol@exp1^0,7,c
  2105   0029BC  EFE4  F014         	goto	u7740
  2106   0029C0  EFE2  F014         	goto	u7741
  2107   0029C4                     u7741:
  2108   0029C4  EFFA  F014         	goto	l8200
  2109   0029C8                     u7740:
  2110   0029C8  5023               	movf	___fltol@exp1^0,w,c
  2111   0029CA  0A80               	xorlw	128
  2112   0029CC  0F97               	addlw	151
  2113   0029CE  B0D8               	btfsc	status,0,c
  2114   0029D0  EFEC  F014         	goto	u7751
  2115   0029D4  EFEE  F014         	goto	u7750
  2116   0029D8                     u7751:
  2117   0029D8  EFF0  F014         	goto	l8196
  2118   0029DC                     u7750:
  2119   0029DC  EFB3  F014         	goto	l8176
  2120   0029E0                     l8196:
  2121   0029E0  90D8               	bcf	status,0,c
  2122   0029E2  321D               	rrcf	(___fltol@f1+3)^0,f,c
  2123   0029E4  321C               	rrcf	(___fltol@f1+2)^0,f,c
  2124   0029E6  321B               	rrcf	(___fltol@f1+1)^0,f,c
  2125   0029E8  321A               	rrcf	___fltol@f1^0,f,c
  2126   0029EA  3E23               	incfsz	___fltol@exp1^0,f,c
  2127   0029EC  EFF0  F014         	goto	l8196
  2128   0029F0  EF12  F015         	goto	l8210
  2129   0029F4                     l8200:
  2130   0029F4  0E1F               	movlw	31
  2131   0029F6  6423               	cpfsgt	___fltol@exp1^0,c
  2132   0029F8  EF00  F015         	goto	u7761
  2133   0029FC  EF02  F015         	goto	u7760
  2134   002A00                     u7761:
  2135   002A00  EF0A  F015         	goto	l8208
  2136   002A04                     u7760:
  2137   002A04  EFB3  F014         	goto	l8176
  2138   002A08                     l8206:
  2139   002A08  90D8               	bcf	status,0,c
  2140   002A0A  361A               	rlcf	___fltol@f1^0,f,c
  2141   002A0C  361B               	rlcf	(___fltol@f1+1)^0,f,c
  2142   002A0E  361C               	rlcf	(___fltol@f1+2)^0,f,c
  2143   002A10  361D               	rlcf	(___fltol@f1+3)^0,f,c
  2144   002A12  0623               	decf	___fltol@exp1^0,f,c
  2145   002A14                     l8208:
  2146   002A14  5023               	movf	___fltol@exp1^0,w,c
  2147   002A16  A4D8               	btfss	status,2,c
  2148   002A18  EF10  F015         	goto	u7771
  2149   002A1C  EF12  F015         	goto	u7770
  2150   002A20                     u7771:
  2151   002A20  EF04  F015         	goto	l8206
  2152   002A24                     u7770:
  2153   002A24                     l8210:
  2154   002A24  5022               	movf	___fltol@sign1^0,w,c
  2155   002A26  B4D8               	btfsc	status,2,c
  2156   002A28  EF18  F015         	goto	u7781
  2157   002A2C  EF1A  F015         	goto	u7780
  2158   002A30                     u7781:
  2159   002A30  EF22  F015         	goto	l8214
  2160   002A34                     u7780:
  2161   002A34  1E1D               	comf	(___fltol@f1+3)^0,f,c
  2162   002A36  1E1C               	comf	(___fltol@f1+2)^0,f,c
  2163   002A38  1E1B               	comf	(___fltol@f1+1)^0,f,c
  2164   002A3A  6C1A               	negf	___fltol@f1^0,c
  2165   002A3C  0E00               	movlw	0
  2166   002A3E  221B               	addwfc	(___fltol@f1+1)^0,f,c
  2167   002A40  221C               	addwfc	(___fltol@f1+2)^0,f,c
  2168   002A42  221D               	addwfc	(___fltol@f1+3)^0,f,c
  2169   002A44                     l8214:
  2170   002A44  C01A  F01A         	movff	___fltol@f1,?___fltol
  2171   002A48  C01B  F01B         	movff	___fltol@f1+1,?___fltol+1
  2172   002A4C  C01C  F01C         	movff	___fltol@f1+2,?___fltol+2
  2173   002A50  C01D  F01D         	movff	___fltol@f1+3,?___fltol+3
  2174   002A54                     l1917:
  2175   002A54  0012               	return		;funcret
  2176   002A56                     __end_of___fltol:
  2177                           	callstack 0
  2178                           
  2179 ;; *************** function ___fldiv *****************
  2180 ;; Defined at:
  2181 ;;		line 11 in file "C:\Program Files\Microchip\xc8\v2.41\pic\sources\c99\common\sprcdiv.c"
  2182 ;; Parameters:    Size  Location     Type
  2183 ;;  b               4   39[COMRAM] long 
  2184 ;;  a               4   43[COMRAM] long 
  2185 ;; Auto vars:     Size  Location     Type
  2186 ;;  grs             4   58[COMRAM] unsigned long 
  2187 ;;  rem             4   51[COMRAM] unsigned long 
  2188 ;;  new_exp         2   56[COMRAM] short 
  2189 ;;  aexp            1   63[COMRAM] unsigned char 
  2190 ;;  bexp            1   62[COMRAM] unsigned char 
  2191 ;;  sign            1   55[COMRAM] unsigned char 
  2192 ;; Return value:  Size  Location     Type
  2193 ;;                  4   39[COMRAM] unsigned char 
  2194 ;; Registers used:
  2195 ;;		wreg, status,2, status,0
  2196 ;; Tracked objects:
  2197 ;;		On entry : 0/0
  2198 ;;		On exit  : 0/0
  2199 ;;		Unchanged: 0/0
  2200 ;; Data sizes:     COMRAM   BANK0   BANK1   BANK2   BANK3   BANK4   BANK5   BANK6   BANK7   BANK8   BANK9  BANK10  BANK1
      +1  BANK12  BANK13  BANK14  BANK15
  2201 ;;      Params:         8       0       0       0       0       0       0       0       0       0       0       0       
      +0       0       0       0       0
  2202 ;;      Locals:        13       0       0       0       0       0       0       0       0       0       0       0       
      +0       0       0       0       0
  2203 ;;      Temps:          4       0       0       0       0       0       0       0       0       0       0       0       
      +0       0       0       0       0
  2204 ;;      Totals:        25       0       0       0       0       0       0       0       0       0       0       0       
      +0       0       0       0       0
  2205 ;;Total ram usage:       25 bytes
  2206 ;; Hardware stack levels used: 1
  2207 ;; Hardware stack levels required when called: 5
  2208 ;; This function calls:
  2209 ;;		Nothing
  2210 ;; This function is called by:
  2211 ;;		_USART_Baud_Rate_Calculation
  2212 ;;		_MSSP_I2C_Master_Mode_Clock_Configurations
  2213 ;; This function uses a non-reentrant model
  2214 ;;
  2215                           
  2216                           	psect	text6
  2217   001E20                     __ptext6:
  2218                           	callstack 0
  2219   001E20                     ___fldiv:
  2220                           	callstack 22
  2221   001E20  502B               	movf	(___fldiv@b+3)^0,w,c
  2222   001E22  0B80               	andlw	128
  2223   001E24  6E38               	movwf	___fldiv@sign^0,c
  2224   001E26  502B               	movf	(___fldiv@b+3)^0,w,c
  2225   001E28  242B               	addwf	(___fldiv@b+3)^0,w,c
  2226   001E2A  6E3F               	movwf	___fldiv@bexp^0,c
  2227   001E2C  AE2A               	btfss	(___fldiv@b+2)^0,7,c
  2228   001E2E  EF1B  F00F         	goto	u7491
  2229   001E32  EF1D  F00F         	goto	u7490
  2230   001E36                     u7491:
  2231   001E36  EF1E  F00F         	goto	l8042
  2232   001E3A                     u7490:
  2233   001E3A  803F               	bsf	___fldiv@bexp^0,0,c
  2234   001E3C                     l8042:
  2235   001E3C  503F               	movf	___fldiv@bexp^0,w,c
  2236   001E3E  B4D8               	btfsc	status,2,c
  2237   001E40  EF24  F00F         	goto	u7501
  2238   001E44  EF26  F00F         	goto	u7500
  2239   001E48                     u7501:
  2240   001E48  EF3B  F00F         	goto	l8052
  2241   001E4C                     u7500:
  2242   001E4C  283F               	incf	___fldiv@bexp^0,w,c
  2243   001E4E  A4D8               	btfss	status,2,c
  2244   001E50  EF2C  F00F         	goto	u7511
  2245   001E54  EF2E  F00F         	goto	u7510
  2246   001E58                     u7511:
  2247   001E58  EF36  F00F         	goto	l8048
  2248   001E5C                     u7510:
  2249   001E5C  0E00               	movlw	0
  2250   001E5E  6E28               	movwf	___fldiv@b^0,c
  2251   001E60  0E00               	movlw	0
  2252   001E62  6E29               	movwf	(___fldiv@b+1)^0,c
  2253   001E64  0E00               	movlw	0
  2254   001E66  6E2A               	movwf	(___fldiv@b+2)^0,c
  2255   001E68  0E00               	movlw	0
  2256   001E6A  6E2B               	movwf	(___fldiv@b+3)^0,c
  2257   001E6C                     l8048:
  2258   001E6C  8E2A               	bsf	(___fldiv@b+2)^0,7,c
  2259   001E6E  0E00               	movlw	0
  2260   001E70  6E2B               	movwf	(___fldiv@b+3)^0,c
  2261   001E72  EF43  F00F         	goto	l8054
  2262   001E76                     l8052:
  2263   001E76  0E00               	movlw	0
  2264   001E78  6E28               	movwf	___fldiv@b^0,c
  2265   001E7A  0E00               	movlw	0
  2266   001E7C  6E29               	movwf	(___fldiv@b+1)^0,c
  2267   001E7E  0E00               	movlw	0
  2268   001E80  6E2A               	movwf	(___fldiv@b+2)^0,c
  2269   001E82  0E00               	movlw	0
  2270   001E84  6E2B               	movwf	(___fldiv@b+3)^0,c
  2271   001E86                     l8054:
  2272   001E86  502F               	movf	(___fldiv@a+3)^0,w,c
  2273   001E88  0B80               	andlw	128
  2274   001E8A  1A38               	xorwf	___fldiv@sign^0,f,c
  2275   001E8C  502F               	movf	(___fldiv@a+3)^0,w,c
  2276   001E8E  242F               	addwf	(___fldiv@a+3)^0,w,c
  2277   001E90  6E40               	movwf	___fldiv@aexp^0,c
  2278   001E92  AE2E               	btfss	(___fldiv@a+2)^0,7,c
  2279   001E94  EF4E  F00F         	goto	u7521
  2280   001E98  EF50  F00F         	goto	u7520
  2281   001E9C                     u7521:
  2282   001E9C  EF51  F00F         	goto	l8062
  2283   001EA0                     u7520:
  2284   001EA0  8040               	bsf	___fldiv@aexp^0,0,c
  2285   001EA2                     l8062:
  2286   001EA2  5040               	movf	___fldiv@aexp^0,w,c
  2287   001EA4  B4D8               	btfsc	status,2,c
  2288   001EA6  EF57  F00F         	goto	u7531
  2289   001EAA  EF59  F00F         	goto	u7530
  2290   001EAE                     u7531:
  2291   001EAE  EF6E  F00F         	goto	l8072
  2292   001EB2                     u7530:
  2293   001EB2  2840               	incf	___fldiv@aexp^0,w,c
  2294   001EB4  A4D8               	btfss	status,2,c
  2295   001EB6  EF5F  F00F         	goto	u7541
  2296   001EBA  EF61  F00F         	goto	u7540
  2297   001EBE                     u7541:
  2298   001EBE  EF69  F00F         	goto	l8068
  2299   001EC2                     u7540:
  2300   001EC2  0E00               	movlw	0
  2301   001EC4  6E2C               	movwf	___fldiv@a^0,c
  2302   001EC6  0E00               	movlw	0
  2303   001EC8  6E2D               	movwf	(___fldiv@a+1)^0,c
  2304   001ECA  0E00               	movlw	0
  2305   001ECC  6E2E               	movwf	(___fldiv@a+2)^0,c
  2306   001ECE  0E00               	movlw	0
  2307   001ED0  6E2F               	movwf	(___fldiv@a+3)^0,c
  2308   001ED2                     l8068:
  2309   001ED2  8E2E               	bsf	(___fldiv@a+2)^0,7,c
  2310   001ED4  0E00               	movlw	0
  2311   001ED6  6E2F               	movwf	(___fldiv@a+3)^0,c
  2312   001ED8  EF76  F00F         	goto	l8074
  2313   001EDC                     l8072:
  2314   001EDC  0E00               	movlw	0
  2315   001EDE  6E2C               	movwf	___fldiv@a^0,c
  2316   001EE0  0E00               	movlw	0
  2317   001EE2  6E2D               	movwf	(___fldiv@a+1)^0,c
  2318   001EE4  0E00               	movlw	0
  2319   001EE6  6E2E               	movwf	(___fldiv@a+2)^0,c
  2320   001EE8  0E00               	movlw	0
  2321   001EEA  6E2F               	movwf	(___fldiv@a+3)^0,c
  2322   001EEC                     l8074:
  2323   001EEC  502C               	movf	___fldiv@a^0,w,c
  2324   001EEE  102D               	iorwf	(___fldiv@a+1)^0,w,c
  2325   001EF0  102E               	iorwf	(___fldiv@a+2)^0,w,c
  2326   001EF2  102F               	iorwf	(___fldiv@a+3)^0,w,c
  2327   001EF4  A4D8               	btfss	status,2,c
  2328   001EF6  EF7F  F00F         	goto	u7551
  2329   001EFA  EF81  F00F         	goto	u7550
  2330   001EFE                     u7551:
  2331   001EFE  EF99  F00F         	goto	l8086
  2332   001F02                     u7550:
  2333   001F02  0E00               	movlw	0
  2334   001F04  6E28               	movwf	___fldiv@b^0,c
  2335   001F06  0E00               	movlw	0
  2336   001F08  6E29               	movwf	(___fldiv@b+1)^0,c
  2337   001F0A  0E00               	movlw	0
  2338   001F0C  6E2A               	movwf	(___fldiv@b+2)^0,c
  2339   001F0E  0E00               	movlw	0
  2340   001F10  6E2B               	movwf	(___fldiv@b+3)^0,c
  2341   001F12  0E80               	movlw	128
  2342   001F14  122A               	iorwf	(___fldiv@b+2)^0,f,c
  2343   001F16  0E7F               	movlw	127
  2344   001F18  122B               	iorwf	(___fldiv@b+3)^0,f,c
  2345   001F1A                     l8080:
  2346   001F1A  5038               	movf	___fldiv@sign^0,w,c
  2347   001F1C  122B               	iorwf	(___fldiv@b+3)^0,f,c
  2348   001F1E  C028  F028         	movff	___fldiv@b,?___fldiv
  2349   001F22  C029  F029         	movff	___fldiv@b+1,?___fldiv+1
  2350   001F26  C02A  F02A         	movff	___fldiv@b+2,?___fldiv+2
  2351   001F2A  C02B  F02B         	movff	___fldiv@b+3,?___fldiv+3
  2352   001F2E  EFDC  F010         	goto	l2202
  2353   001F32                     l8086:
  2354   001F32  503F               	movf	___fldiv@bexp^0,w,c
  2355   001F34  A4D8               	btfss	status,2,c
  2356   001F36  EF9F  F00F         	goto	u7561
  2357   001F3A  EFA1  F00F         	goto	u7560
  2358   001F3E                     u7561:
  2359   001F3E  EFAB  F00F         	goto	l8094
  2360   001F42                     u7560:
  2361   001F42  0E00               	movlw	0
  2362   001F44  6E28               	movwf	?___fldiv^0,c
  2363   001F46  0E00               	movlw	0
  2364   001F48  6E29               	movwf	(?___fldiv+1)^0,c
  2365   001F4A  0E00               	movlw	0
  2366   001F4C  6E2A               	movwf	(?___fldiv+2)^0,c
  2367   001F4E  0E00               	movlw	0
  2368   001F50  6E2B               	movwf	(?___fldiv+3)^0,c
  2369   001F52  EFDC  F010         	goto	l2202
  2370   001F56                     l8094:
  2371   001F56  5040               	movf	___fldiv@aexp^0,w,c
  2372   001F58  C03F  F030         	movff	___fldiv@bexp,??___fldiv
  2373   001F5C  6A31               	clrf	(??___fldiv+1)^0,c
  2374   001F5E  5E30               	subwf	??___fldiv^0,f,c
  2375   001F60  0E00               	movlw	0
  2376   001F62  5A31               	subwfb	(??___fldiv+1)^0,f,c
  2377   001F64  0E7F               	movlw	127
  2378   001F66  2430               	addwf	??___fldiv^0,w,c
  2379   001F68  6E39               	movwf	___fldiv@new_exp^0,c
  2380   001F6A  0E00               	movlw	0
  2381   001F6C  2031               	addwfc	(??___fldiv+1)^0,w,c
  2382   001F6E  6E3A               	movwf	(___fldiv@new_exp+1)^0,c
  2383   001F70  C028  F034         	movff	___fldiv@b,___fldiv@rem
  2384   001F74  C029  F035         	movff	___fldiv@b+1,___fldiv@rem+1
  2385   001F78  C02A  F036         	movff	___fldiv@b+2,___fldiv@rem+2
  2386   001F7C  C02B  F037         	movff	___fldiv@b+3,___fldiv@rem+3
  2387   001F80  0E00               	movlw	0
  2388   001F82  6E28               	movwf	___fldiv@b^0,c
  2389   001F84  0E00               	movlw	0
  2390   001F86  6E29               	movwf	(___fldiv@b+1)^0,c
  2391   001F88  0E00               	movlw	0
  2392   001F8A  6E2A               	movwf	(___fldiv@b+2)^0,c
  2393   001F8C  0E00               	movlw	0
  2394   001F8E  6E2B               	movwf	(___fldiv@b+3)^0,c
  2395   001F90  0E00               	movlw	0
  2396   001F92  6E3B               	movwf	___fldiv@grs^0,c
  2397   001F94  0E00               	movlw	0
  2398   001F96  6E3C               	movwf	(___fldiv@grs+1)^0,c
  2399   001F98  0E00               	movlw	0
  2400   001F9A  6E3D               	movwf	(___fldiv@grs+2)^0,c
  2401   001F9C  0E00               	movlw	0
  2402   001F9E  6E3E               	movwf	(___fldiv@grs+3)^0,c
  2403   001FA0  0E00               	movlw	0
  2404   001FA2  6E40               	movwf	___fldiv@aexp^0,c
  2405   001FA4  EF0C  F010         	goto	l2204
  2406   001FA8                     l8104:
  2407   001FA8  5040               	movf	___fldiv@aexp^0,w,c
  2408   001FAA  B4D8               	btfsc	status,2,c
  2409   001FAC  EFDA  F00F         	goto	u7571
  2410   001FB0  EFDC  F00F         	goto	u7570
  2411   001FB4                     u7571:
  2412   001FB4  EFF3  F00F         	goto	l8112
  2413   001FB8                     u7570:
  2414   001FB8  90D8               	bcf	status,0,c
  2415   001FBA  3634               	rlcf	___fldiv@rem^0,f,c
  2416   001FBC  3635               	rlcf	(___fldiv@rem+1)^0,f,c
  2417   001FBE  3636               	rlcf	(___fldiv@rem+2)^0,f,c
  2418   001FC0  3637               	rlcf	(___fldiv@rem+3)^0,f,c
  2419   001FC2  90D8               	bcf	status,0,c
  2420   001FC4  3628               	rlcf	___fldiv@b^0,f,c
  2421   001FC6  3629               	rlcf	(___fldiv@b+1)^0,f,c
  2422   001FC8  362A               	rlcf	(___fldiv@b+2)^0,f,c
  2423   001FCA  362B               	rlcf	(___fldiv@b+3)^0,f,c
  2424   001FCC  AE3E               	btfss	(___fldiv@grs+3)^0,7,c
  2425   001FCE  EFEB  F00F         	goto	u7581
  2426   001FD2  EFED  F00F         	goto	u7580
  2427   001FD6                     u7581:
  2428   001FD6  EFEE  F00F         	goto	l2207
  2429   001FDA                     u7580:
  2430   001FDA  8028               	bsf	___fldiv@b^0,0,c
  2431   001FDC                     l2207:
  2432   001FDC  90D8               	bcf	status,0,c
  2433   001FDE  363B               	rlcf	___fldiv@grs^0,f,c
  2434   001FE0  363C               	rlcf	(___fldiv@grs+1)^0,f,c
  2435   001FE2  363D               	rlcf	(___fldiv@grs+2)^0,f,c
  2436   001FE4  363E               	rlcf	(___fldiv@grs+3)^0,f,c
  2437   001FE6                     l8112:
  2438   001FE6  502C               	movf	___fldiv@a^0,w,c
  2439   001FE8  5C34               	subwf	___fldiv@rem^0,w,c
  2440   001FEA  502D               	movf	(___fldiv@a+1)^0,w,c
  2441   001FEC  5835               	subwfb	(___fldiv@rem+1)^0,w,c
  2442   001FEE  502E               	movf	(___fldiv@a+2)^0,w,c
  2443   001FF0  5836               	subwfb	(___fldiv@rem+2)^0,w,c
  2444   001FF2  502F               	movf	(___fldiv@a+3)^0,w,c
  2445   001FF4  5837               	subwfb	(___fldiv@rem+3)^0,w,c
  2446   001FF6  A0D8               	btfss	status,0,c
  2447   001FF8  EF00  F010         	goto	u7591
  2448   001FFC  EF02  F010         	goto	u7590
  2449   002000                     u7591:
  2450   002000  EF0B  F010         	goto	l8118
  2451   002004                     u7590:
  2452   002004  8C3E               	bsf	(___fldiv@grs+3)^0,6,c
  2453   002006  502C               	movf	___fldiv@a^0,w,c
  2454   002008  5E34               	subwf	___fldiv@rem^0,f,c
  2455   00200A  502D               	movf	(___fldiv@a+1)^0,w,c
  2456   00200C  5A35               	subwfb	(___fldiv@rem+1)^0,f,c
  2457   00200E  502E               	movf	(___fldiv@a+2)^0,w,c
  2458   002010  5A36               	subwfb	(___fldiv@rem+2)^0,f,c
  2459   002012  502F               	movf	(___fldiv@a+3)^0,w,c
  2460   002014  5A37               	subwfb	(___fldiv@rem+3)^0,f,c
  2461   002016                     l8118:
  2462   002016  2A40               	incf	___fldiv@aexp^0,f,c
  2463   002018                     l2204:
  2464   002018  0E19               	movlw	25
  2465   00201A  6440               	cpfsgt	___fldiv@aexp^0,c
  2466   00201C  EF12  F010         	goto	u7601
  2467   002020  EF14  F010         	goto	u7600
  2468   002024                     u7601:
  2469   002024  EFD4  F00F         	goto	l8104
  2470   002028                     u7600:
  2471   002028  5034               	movf	___fldiv@rem^0,w,c
  2472   00202A  1035               	iorwf	(___fldiv@rem+1)^0,w,c
  2473   00202C  1036               	iorwf	(___fldiv@rem+2)^0,w,c
  2474   00202E  1037               	iorwf	(___fldiv@rem+3)^0,w,c
  2475   002030  B4D8               	btfsc	status,2,c
  2476   002032  EF1D  F010         	goto	u7611
  2477   002036  EF1F  F010         	goto	u7610
  2478   00203A                     u7611:
  2479   00203A  EF37  F010         	goto	l8130
  2480   00203E                     u7610:
  2481   00203E  803B               	bsf	___fldiv@grs^0,0,c
  2482   002040  EF37  F010         	goto	l8130
  2483   002044                     l8124:
  2484   002044  90D8               	bcf	status,0,c
  2485   002046  3628               	rlcf	___fldiv@b^0,f,c
  2486   002048  3629               	rlcf	(___fldiv@b+1)^0,f,c
  2487   00204A  362A               	rlcf	(___fldiv@b+2)^0,f,c
  2488   00204C  362B               	rlcf	(___fldiv@b+3)^0,f,c
  2489   00204E  AE3E               	btfss	(___fldiv@grs+3)^0,7,c
  2490   002050  EF2C  F010         	goto	u7621
  2491   002054  EF2E  F010         	goto	u7620
  2492   002058                     u7621:
  2493   002058  EF2F  F010         	goto	l2213
  2494   00205C                     u7620:
  2495   00205C  8028               	bsf	___fldiv@b^0,0,c
  2496   00205E                     l2213:
  2497   00205E  90D8               	bcf	status,0,c
  2498   002060  363B               	rlcf	___fldiv@grs^0,f,c
  2499   002062  363C               	rlcf	(___fldiv@grs+1)^0,f,c
  2500   002064  363D               	rlcf	(___fldiv@grs+2)^0,f,c
  2501   002066  363E               	rlcf	(___fldiv@grs+3)^0,f,c
  2502   002068  0639               	decf	___fldiv@new_exp^0,f,c
  2503   00206A  A0D8               	btfss	status,0,c
  2504   00206C  063A               	decf	(___fldiv@new_exp+1)^0,f,c
  2505   00206E                     l8130:
  2506   00206E  AE2A               	btfss	(___fldiv@b+2)^0,7,c
  2507   002070  EF3C  F010         	goto	u7631
  2508   002074  EF3E  F010         	goto	u7630
  2509   002078                     u7631:
  2510   002078  EF22  F010         	goto	l8124
  2511   00207C                     u7630:
  2512   00207C  0E00               	movlw	0
  2513   00207E  6E40               	movwf	___fldiv@aexp^0,c
  2514   002080  AE3E               	btfss	(___fldiv@grs+3)^0,7,c
  2515   002082  EF45  F010         	goto	u7641
  2516   002086  EF47  F010         	goto	u7640
  2517   00208A                     u7641:
  2518   00208A  EF6B  F010         	goto	l2215
  2519   00208E                     u7640:
  2520   00208E  0EFF               	movlw	255
  2521   002090  143B               	andwf	___fldiv@grs^0,w,c
  2522   002092  6E30               	movwf	??___fldiv^0,c
  2523   002094  0EFF               	movlw	255
  2524   002096  143C               	andwf	(___fldiv@grs+1)^0,w,c
  2525   002098  6E31               	movwf	(??___fldiv+1)^0,c
  2526   00209A  0EFF               	movlw	255
  2527   00209C  143D               	andwf	(___fldiv@grs+2)^0,w,c
  2528   00209E  6E32               	movwf	(??___fldiv+2)^0,c
  2529   0020A0  0E7F               	movlw	127
  2530   0020A2  143E               	andwf	(___fldiv@grs+3)^0,w,c
  2531   0020A4  6E33               	movwf	(??___fldiv+3)^0,c
  2532   0020A6  5030               	movf	??___fldiv^0,w,c
  2533   0020A8  1031               	iorwf	(??___fldiv+1)^0,w,c
  2534   0020AA  1032               	iorwf	(??___fldiv+2)^0,w,c
  2535   0020AC  1033               	iorwf	(??___fldiv+3)^0,w,c
  2536   0020AE  B4D8               	btfsc	status,2,c
  2537   0020B0  EF5C  F010         	goto	u7651
  2538   0020B4  EF5E  F010         	goto	u7650
  2539   0020B8                     u7651:
  2540   0020B8  EF62  F010         	goto	l2216
  2541   0020BC                     u7650:
  2542   0020BC                     l8138:
  2543   0020BC  0E01               	movlw	1
  2544   0020BE  6E40               	movwf	___fldiv@aexp^0,c
  2545   0020C0  EF6B  F010         	goto	l2215
  2546   0020C4                     l2216:
  2547   0020C4  A028               	btfss	___fldiv@b^0,0,c
  2548   0020C6  EF67  F010         	goto	u7661
  2549   0020CA  EF69  F010         	goto	u7660
  2550   0020CE                     u7661:
  2551   0020CE  EF6B  F010         	goto	l2215
  2552   0020D2                     u7660:
  2553   0020D2  EF5E  F010         	goto	l8138
  2554   0020D6                     l2215:
  2555   0020D6  5040               	movf	___fldiv@aexp^0,w,c
  2556   0020D8  B4D8               	btfsc	status,2,c
  2557   0020DA  EF71  F010         	goto	u7671
  2558   0020DE  EF73  F010         	goto	u7670
  2559   0020E2                     u7671:
  2560   0020E2  EF97  F010         	goto	l8150
  2561   0020E6                     u7670:
  2562   0020E6  0E01               	movlw	1
  2563   0020E8  2628               	addwf	___fldiv@b^0,f,c
  2564   0020EA  0E00               	movlw	0
  2565   0020EC  2229               	addwfc	(___fldiv@b+1)^0,f,c
  2566   0020EE  222A               	addwfc	(___fldiv@b+2)^0,f,c
  2567   0020F0  222B               	addwfc	(___fldiv@b+3)^0,f,c
  2568   0020F2  A02B               	btfss	(___fldiv@b+3)^0,0,c
  2569   0020F4  EF7E  F010         	goto	u7681
  2570   0020F8  EF80  F010         	goto	u7680
  2571   0020FC                     u7681:
  2572   0020FC  EF97  F010         	goto	l8150
  2573   002100                     u7680:
  2574   002100  C028  F030         	movff	___fldiv@b,??___fldiv
  2575   002104  C029  F031         	movff	___fldiv@b+1,??___fldiv+1
  2576   002108  C02A  F032         	movff	___fldiv@b+2,??___fldiv+2
  2577   00210C  C02B  F033         	movff	___fldiv@b+3,??___fldiv+3
  2578   002110  3433               	rlcf	(??___fldiv+3)^0,w,c
  2579   002112  3233               	rrcf	(??___fldiv+3)^0,f,c
  2580   002114  3232               	rrcf	(??___fldiv+2)^0,f,c
  2581   002116  3231               	rrcf	(??___fldiv+1)^0,f,c
  2582   002118  3230               	rrcf	??___fldiv^0,f,c
  2583   00211A  C030  F028         	movff	??___fldiv,___fldiv@b
  2584   00211E  C031  F029         	movff	??___fldiv+1,___fldiv@b+1
  2585   002122  C032  F02A         	movff	??___fldiv+2,___fldiv@b+2
  2586   002126  C033  F02B         	movff	??___fldiv+3,___fldiv@b+3
  2587   00212A  4A39               	infsnz	___fldiv@new_exp^0,f,c
  2588   00212C  2A3A               	incf	(___fldiv@new_exp+1)^0,f,c
  2589   00212E                     l8150:
  2590   00212E  BE3A               	btfsc	(___fldiv@new_exp+1)^0,7,c
  2591   002130  EFA2  F010         	goto	u7691
  2592   002134  503A               	movf	(___fldiv@new_exp+1)^0,w,c
  2593   002136  E108               	bnz	u7690
  2594   002138  2839               	incf	___fldiv@new_exp^0,w,c
  2595   00213A  A0D8               	btfss	status,0,c
  2596   00213C  EFA2  F010         	goto	u7691
  2597   002140  EFA4  F010         	goto	u7690
  2598   002144                     u7691:
  2599   002144  EFAF  F010         	goto	l8154
  2600   002148                     u7690:
  2601   002148  0E00               	movlw	0
  2602   00214A  6E3A               	movwf	(___fldiv@new_exp+1)^0,c
  2603   00214C  6839               	setf	___fldiv@new_exp^0,c
  2604   00214E  0E00               	movlw	0
  2605   002150  6E28               	movwf	___fldiv@b^0,c
  2606   002152  0E00               	movlw	0
  2607   002154  6E29               	movwf	(___fldiv@b+1)^0,c
  2608   002156  0E00               	movlw	0
  2609   002158  6E2A               	movwf	(___fldiv@b+2)^0,c
  2610   00215A  0E00               	movlw	0
  2611   00215C  6E2B               	movwf	(___fldiv@b+3)^0,c
  2612   00215E                     l8154:
  2613   00215E  BE3A               	btfsc	(___fldiv@new_exp+1)^0,7,c
  2614   002160  EFBC  F010         	goto	u7700
  2615   002164  503A               	movf	(___fldiv@new_exp+1)^0,w,c
  2616   002166  E106               	bnz	u7701
  2617   002168  0439               	decf	___fldiv@new_exp^0,w,c
  2618   00216A  B0D8               	btfsc	status,0,c
  2619   00216C  EFBA  F010         	goto	u7701
  2620   002170  EFBC  F010         	goto	u7700
  2621   002174                     u7701:
  2622   002174  EFCA  F010         	goto	l8158
  2623   002178                     u7700:
  2624   002178  0E00               	movlw	0
  2625   00217A  6E3A               	movwf	(___fldiv@new_exp+1)^0,c
  2626   00217C  0E00               	movlw	0
  2627   00217E  6E39               	movwf	___fldiv@new_exp^0,c
  2628   002180  0E00               	movlw	0
  2629   002182  6E28               	movwf	___fldiv@b^0,c
  2630   002184  0E00               	movlw	0
  2631   002186  6E29               	movwf	(___fldiv@b+1)^0,c
  2632   002188  0E00               	movlw	0
  2633   00218A  6E2A               	movwf	(___fldiv@b+2)^0,c
  2634   00218C  0E00               	movlw	0
  2635   00218E  6E2B               	movwf	(___fldiv@b+3)^0,c
  2636   002190  0E00               	movlw	0
  2637   002192  6E38               	movwf	___fldiv@sign^0,c
  2638   002194                     l8158:
  2639   002194  C039  F03F         	movff	___fldiv@new_exp,___fldiv@bexp
  2640   002198  A03F               	btfss	___fldiv@bexp^0,0,c
  2641   00219A  EFD1  F010         	goto	u7711
  2642   00219E  EFD3  F010         	goto	u7710
  2643   0021A2                     u7711:
  2644   0021A2  EFD6  F010         	goto	l8164
  2645   0021A6                     u7710:
  2646   0021A6  8E2A               	bsf	(___fldiv@b+2)^0,7,c
  2647   0021A8  EFD7  F010         	goto	l8166
  2648   0021AC                     l8164:
  2649   0021AC  9E2A               	bcf	(___fldiv@b+2)^0,7,c
  2650   0021AE                     l8166:
  2651   0021AE  90D8               	bcf	status,0,c
  2652   0021B0  303F               	rrcf	___fldiv@bexp^0,w,c
  2653   0021B2  6E2B               	movwf	(___fldiv@b+3)^0,c
  2654   0021B4  EF8D  F00F         	goto	l8080
  2655   0021B8                     l2202:
  2656   0021B8  0012               	return		;funcret
  2657   0021BA                     __end_of___fldiv:
  2658                           	callstack 0
  2659                           
  2660 ;; *************** function ___fladd *****************
  2661 ;; Defined at:
  2662 ;;		line 10 in file "C:\Program Files\Microchip\xc8\v2.41\pic\sources\c99\common\sprcadd.c"
  2663 ;; Parameters:    Size  Location     Type
  2664 ;;  b               4    0[BANK0 ] unsigned char 
  2665 ;;  a               4    4[BANK0 ] unsigned char 
  2666 ;; Auto vars:     Size  Location     Type
  2667 ;;  grs             1   11[BANK0 ] unsigned char 
  2668 ;;  bexp            1   10[BANK0 ] unsigned char 
  2669 ;;  aexp            1    9[BANK0 ] unsigned char 
  2670 ;;  signs           1    8[BANK0 ] unsigned char 
  2671 ;; Return value:  Size  Location     Type
  2672 ;;                  4    0[BANK0 ] unsigned char 
  2673 ;; Registers used:
  2674 ;;		wreg, status,2, status,0
  2675 ;; Tracked objects:
  2676 ;;		On entry : 0/0
  2677 ;;		On exit  : 0/0
  2678 ;;		Unchanged: 0/0
  2679 ;; Data sizes:     COMRAM   BANK0   BANK1   BANK2   BANK3   BANK4   BANK5   BANK6   BANK7   BANK8   BANK9  BANK10  BANK1
      +1  BANK12  BANK13  BANK14  BANK15
  2680 ;;      Params:         0       8       0       0       0       0       0       0       0       0       0       0       
      +0       0       0       0       0
  2681 ;;      Locals:         0       4       0       0       0       0       0       0       0       0       0       0       
      +0       0       0       0       0
  2682 ;;      Temps:          4       0       0       0       0       0       0       0       0       0       0       0       
      +0       0       0       0       0
  2683 ;;      Totals:         4      12       0       0       0       0       0       0       0       0       0       0       
      +0       0       0       0       0
  2684 ;;Total ram usage:       16 bytes
  2685 ;; Hardware stack levels used: 1
  2686 ;; Hardware stack levels required when called: 5
  2687 ;; This function calls:
  2688 ;;		Nothing
  2689 ;; This function is called by:
  2690 ;;		_USART_Baud_Rate_Calculation
  2691 ;;		_MSSP_I2C_Master_Mode_Clock_Configurations
  2692 ;; This function uses a non-reentrant model
  2693 ;;
  2694                           
  2695                           	psect	text7
  2696   001528                     __ptext7:
  2697                           	callstack 0
  2698   001528                     ___fladd:
  2699                           	callstack 22
  2700   001528  0100               	movlb	0	; () banked
  2701   00152A  51E9               	movf	(___fladd@b+3)& (0+255),w,b
  2702   00152C  0B80               	andlw	128
  2703   00152E  6FEE               	movwf	___fladd@signs& (0+255),b
  2704   001530  51E9               	movf	(___fladd@b+3)& (0+255),w,b
  2705   001532  25E9               	addwf	(___fladd@b+3)& (0+255),w,b
  2706   001534  6FF0               	movwf	___fladd@bexp& (0+255),b
  2707   001536                     
  2708                           ; BSR set to: 0
  2709   001536  AFE8               	btfss	(___fladd@b+2)& (0+255),7,b
  2710   001538  EFA0  F00A         	goto	u7101
  2711   00153C  EFA2  F00A         	goto	u7100
  2712   001540                     u7101:
  2713   001540  EFA3  F00A         	goto	l7840
  2714   001544                     u7100:
  2715   001544                     
  2716                           ; BSR set to: 0
  2717   001544  81F0               	bsf	___fladd@bexp& (0+255),0,b
  2718   001546                     l7840:
  2719                           
  2720                           ; BSR set to: 0
  2721   001546  51F0               	movf	___fladd@bexp& (0+255),w,b
  2722   001548  B4D8               	btfsc	status,2,c
  2723   00154A  EFA9  F00A         	goto	u7111
  2724   00154E  EFAB  F00A         	goto	u7110
  2725   001552                     u7111:
  2726   001552  EFC0  F00A         	goto	l7850
  2727   001556                     u7110:
  2728   001556                     
  2729                           ; BSR set to: 0
  2730   001556  29F0               	incf	___fladd@bexp& (0+255),w,b
  2731   001558  A4D8               	btfss	status,2,c
  2732   00155A  EFB1  F00A         	goto	u7121
  2733   00155E  EFB3  F00A         	goto	u7120
  2734   001562                     u7121:
  2735   001562  EFBB  F00A         	goto	l7846
  2736   001566                     u7120:
  2737   001566                     
  2738                           ; BSR set to: 0
  2739   001566  0E00               	movlw	0
  2740   001568  6FE6               	movwf	___fladd@b& (0+255),b
  2741   00156A  0E00               	movlw	0
  2742   00156C  6FE7               	movwf	(___fladd@b+1)& (0+255),b
  2743   00156E  0E00               	movlw	0
  2744   001570  6FE8               	movwf	(___fladd@b+2)& (0+255),b
  2745   001572  0E00               	movlw	0
  2746   001574  6FE9               	movwf	(___fladd@b+3)& (0+255),b
  2747   001576                     l7846:
  2748                           
  2749                           ; BSR set to: 0
  2750   001576  8FE8               	bsf	(___fladd@b+2)& (0+255),7,b
  2751   001578                     
  2752                           ; BSR set to: 0
  2753   001578  0E00               	movlw	0
  2754   00157A  6FE9               	movwf	(___fladd@b+3)& (0+255),b
  2755   00157C  EFC8  F00A         	goto	l7852
  2756   001580                     l7850:
  2757                           
  2758                           ; BSR set to: 0
  2759   001580  0E00               	movlw	0
  2760   001582  6FE6               	movwf	___fladd@b& (0+255),b
  2761   001584  0E00               	movlw	0
  2762   001586  6FE7               	movwf	(___fladd@b+1)& (0+255),b
  2763   001588  0E00               	movlw	0
  2764   00158A  6FE8               	movwf	(___fladd@b+2)& (0+255),b
  2765   00158C  0E00               	movlw	0
  2766   00158E  6FE9               	movwf	(___fladd@b+3)& (0+255),b
  2767   001590                     l7852:
  2768                           
  2769                           ; BSR set to: 0
  2770   001590  51ED               	movf	(___fladd@a+3)& (0+255),w,b
  2771   001592  0B80               	andlw	128
  2772   001594  6FEF               	movwf	___fladd@aexp& (0+255),b
  2773   001596                     
  2774                           ; BSR set to: 0
  2775   001596  51EE               	movf	___fladd@signs& (0+255),w,b
  2776   001598  19EF               	xorwf	___fladd@aexp& (0+255),w,b
  2777   00159A  B4D8               	btfsc	status,2,c
  2778   00159C  EFD2  F00A         	goto	u7131
  2779   0015A0  EFD4  F00A         	goto	u7130
  2780   0015A4                     u7131:
  2781   0015A4  EFD5  F00A         	goto	l7858
  2782   0015A8                     u7130:
  2783   0015A8                     
  2784                           ; BSR set to: 0
  2785   0015A8  8DEE               	bsf	___fladd@signs& (0+255),6,b
  2786   0015AA                     l7858:
  2787                           
  2788                           ; BSR set to: 0
  2789   0015AA  51ED               	movf	(___fladd@a+3)& (0+255),w,b
  2790   0015AC  25ED               	addwf	(___fladd@a+3)& (0+255),w,b
  2791   0015AE  6FEF               	movwf	___fladd@aexp& (0+255),b
  2792   0015B0                     
  2793                           ; BSR set to: 0
  2794   0015B0  AFEC               	btfss	(___fladd@a+2)& (0+255),7,b
  2795   0015B2  EFDD  F00A         	goto	u7141
  2796   0015B6  EFDF  F00A         	goto	u7140
  2797   0015BA                     u7141:
  2798   0015BA  EFE0  F00A         	goto	l7864
  2799   0015BE                     u7140:
  2800   0015BE                     
  2801                           ; BSR set to: 0
  2802   0015BE  81EF               	bsf	___fladd@aexp& (0+255),0,b
  2803   0015C0                     l7864:
  2804                           
  2805                           ; BSR set to: 0
  2806   0015C0  51EF               	movf	___fladd@aexp& (0+255),w,b
  2807   0015C2  B4D8               	btfsc	status,2,c
  2808   0015C4  EFE6  F00A         	goto	u7151
  2809   0015C8  EFE8  F00A         	goto	u7150
  2810   0015CC                     u7151:
  2811   0015CC  EFFD  F00A         	goto	l7874
  2812   0015D0                     u7150:
  2813   0015D0                     
  2814                           ; BSR set to: 0
  2815   0015D0  29EF               	incf	___fladd@aexp& (0+255),w,b
  2816   0015D2  A4D8               	btfss	status,2,c
  2817   0015D4  EFEE  F00A         	goto	u7161
  2818   0015D8  EFF0  F00A         	goto	u7160
  2819   0015DC                     u7161:
  2820   0015DC  EFF8  F00A         	goto	l7870
  2821   0015E0                     u7160:
  2822   0015E0                     
  2823                           ; BSR set to: 0
  2824   0015E0  0E00               	movlw	0
  2825   0015E2  6FEA               	movwf	___fladd@a& (0+255),b
  2826   0015E4  0E00               	movlw	0
  2827   0015E6  6FEB               	movwf	(___fladd@a+1)& (0+255),b
  2828   0015E8  0E00               	movlw	0
  2829   0015EA  6FEC               	movwf	(___fladd@a+2)& (0+255),b
  2830   0015EC  0E00               	movlw	0
  2831   0015EE  6FED               	movwf	(___fladd@a+3)& (0+255),b
  2832   0015F0                     l7870:
  2833                           
  2834                           ; BSR set to: 0
  2835   0015F0  8FEC               	bsf	(___fladd@a+2)& (0+255),7,b
  2836   0015F2                     
  2837                           ; BSR set to: 0
  2838   0015F2  0E00               	movlw	0
  2839   0015F4  6FED               	movwf	(___fladd@a+3)& (0+255),b
  2840   0015F6  EF05  F00B         	goto	l7876
  2841   0015FA                     l7874:
  2842                           
  2843                           ; BSR set to: 0
  2844   0015FA  0E00               	movlw	0
  2845   0015FC  6FEA               	movwf	___fladd@a& (0+255),b
  2846   0015FE  0E00               	movlw	0
  2847   001600  6FEB               	movwf	(___fladd@a+1)& (0+255),b
  2848   001602  0E00               	movlw	0
  2849   001604  6FEC               	movwf	(___fladd@a+2)& (0+255),b
  2850   001606  0E00               	movlw	0
  2851   001608  6FED               	movwf	(___fladd@a+3)& (0+255),b
  2852   00160A                     l7876:
  2853                           
  2854                           ; BSR set to: 0
  2855   00160A  51F0               	movf	___fladd@bexp& (0+255),w,b
  2856   00160C  5DEF               	subwf	___fladd@aexp& (0+255),w,b
  2857   00160E  B0D8               	btfsc	status,0,c
  2858   001610  EF0C  F00B         	goto	u7171
  2859   001614  EF0E  F00B         	goto	u7170
  2860   001618                     u7171:
  2861   001618  EF35  F00B         	goto	l7912
  2862   00161C                     u7170:
  2863   00161C                     
  2864                           ; BSR set to: 0
  2865   00161C  ADEE               	btfss	___fladd@signs& (0+255),6,b
  2866   00161E  EF13  F00B         	goto	u7181
  2867   001622  EF15  F00B         	goto	u7180
  2868   001626                     u7181:
  2869   001626  EF17  F00B         	goto	l7882
  2870   00162A                     u7180:
  2871   00162A                     
  2872                           ; BSR set to: 0
  2873   00162A  0E80               	movlw	128
  2874   00162C  1BEE               	xorwf	___fladd@signs& (0+255),f,b
  2875   00162E                     l7882:
  2876                           
  2877                           ; BSR set to: 0
  2878   00162E  C0F0  F0F1         	movff	___fladd@bexp,___fladd@grs
  2879   001632                     
  2880                           ; BSR set to: 0
  2881   001632  C0EF  F0F0         	movff	___fladd@aexp,___fladd@bexp
  2882   001636                     
  2883                           ; BSR set to: 0
  2884   001636  C0F1  F0EF         	movff	___fladd@grs,___fladd@aexp
  2885   00163A                     
  2886                           ; BSR set to: 0
  2887   00163A  C0E6  F0F1         	movff	___fladd@b,___fladd@grs
  2888   00163E                     
  2889                           ; BSR set to: 0
  2890   00163E  C0EA  F0E6         	movff	___fladd@a,___fladd@b
  2891   001642                     
  2892                           ; BSR set to: 0
  2893   001642  C0F1  F0EA         	movff	___fladd@grs,___fladd@a
  2894   001646                     
  2895                           ; BSR set to: 0
  2896   001646  C0E7  F0F1         	movff	___fladd@b+1,___fladd@grs
  2897   00164A                     
  2898                           ; BSR set to: 0
  2899   00164A  C0EB  F0E7         	movff	___fladd@a+1,___fladd@b+1
  2900   00164E                     
  2901                           ; BSR set to: 0
  2902   00164E  C0F1  F0EB         	movff	___fladd@grs,___fladd@a+1
  2903   001652                     
  2904                           ; BSR set to: 0
  2905   001652  C0E8  F0F1         	movff	___fladd@b+2,___fladd@grs
  2906   001656                     
  2907                           ; BSR set to: 0
  2908   001656  C0EC  F0E8         	movff	___fladd@a+2,___fladd@b+2
  2909   00165A                     
  2910                           ; BSR set to: 0
  2911   00165A  C0F1  F0EC         	movff	___fladd@grs,___fladd@a+2
  2912   00165E                     
  2913                           ; BSR set to: 0
  2914   00165E  C0E9  F0F1         	movff	___fladd@b+3,___fladd@grs
  2915   001662                     
  2916                           ; BSR set to: 0
  2917   001662  C0ED  F0E9         	movff	___fladd@a+3,___fladd@b+3
  2918   001666                     
  2919                           ; BSR set to: 0
  2920   001666  C0F1  F0ED         	movff	___fladd@grs,___fladd@a+3
  2921   00166A                     l7912:
  2922                           
  2923                           ; BSR set to: 0
  2924   00166A  0E00               	movlw	0
  2925   00166C  6FF1               	movwf	___fladd@grs& (0+255),b
  2926   00166E                     
  2927                           ; BSR set to: 0
  2928   00166E  51F0               	movf	___fladd@bexp& (0+255),w,b
  2929   001670  C0EF  F041         	movff	___fladd@aexp,??___fladd
  2930   001674  6A42               	clrf	(??___fladd+1)^0,c
  2931   001676  5E41               	subwf	??___fladd^0,f,c
  2932   001678  0E00               	movlw	0
  2933   00167A  5A42               	subwfb	(??___fladd+1)^0,f,c
  2934   00167C  BE42               	btfsc	(??___fladd+1)^0,7,c
  2935   00167E  EF4A  F00B         	goto	u7191
  2936   001682  5042               	movf	(??___fladd+1)^0,w,c
  2937   001684  E109               	bnz	u7190
  2938   001686  0E1A               	movlw	26
  2939   001688  5C41               	subwf	??___fladd^0,w,c
  2940   00168A  A0D8               	btfss	status,0,c
  2941   00168C  EF4A  F00B         	goto	u7191
  2942   001690  EF4C  F00B         	goto	u7190
  2943   001694                     u7191:
  2944   001694  EF83  F00B         	goto	l2149
  2945   001698                     u7190:
  2946   001698                     
  2947                           ; BSR set to: 0
  2948   001698  51E6               	movf	___fladd@b& (0+255),w,b
  2949   00169A  11E7               	iorwf	(___fladd@b+1)& (0+255),w,b
  2950   00169C  11E8               	iorwf	(___fladd@b+2)& (0+255),w,b
  2951   00169E  11E9               	iorwf	(___fladd@b+3)& (0+255),w,b
  2952   0016A0  A4D8               	btfss	status,2,c
  2953   0016A2  EF55  F00B         	goto	u7201
  2954   0016A6  EF58  F00B         	goto	u7200
  2955   0016AA                     u7201:
  2956   0016AA  0E01               	movlw	1
  2957   0016AC  EF59  F00B         	goto	u7210
  2958   0016B0                     u7200:
  2959   0016B0  0E00               	movlw	0
  2960   0016B2                     u7210:
  2961   0016B2  6FF1               	movwf	___fladd@grs& (0+255),b
  2962   0016B4                     
  2963                           ; BSR set to: 0
  2964   0016B4  0E00               	movlw	0
  2965   0016B6  6FE6               	movwf	___fladd@b& (0+255),b
  2966   0016B8  0E00               	movlw	0
  2967   0016BA  6FE7               	movwf	(___fladd@b+1)& (0+255),b
  2968   0016BC  0E00               	movlw	0
  2969   0016BE  6FE8               	movwf	(___fladd@b+2)& (0+255),b
  2970   0016C0  0E00               	movlw	0
  2971   0016C2  6FE9               	movwf	(___fladd@b+3)& (0+255),b
  2972   0016C4                     
  2973                           ; BSR set to: 0
  2974   0016C4  C0EF  F0F0         	movff	___fladd@aexp,___fladd@bexp
  2975   0016C8  EF8C  F00B         	goto	l2148
  2976   0016CC                     l2150:
  2977                           
  2978                           ; BSR set to: 0
  2979   0016CC  A1F1               	btfss	___fladd@grs& (0+255),0,b
  2980   0016CE  EF6B  F00B         	goto	u7221
  2981   0016D2  EF6D  F00B         	goto	u7220
  2982   0016D6                     u7221:
  2983   0016D6  EF73  F00B         	goto	l7924
  2984   0016DA                     u7220:
  2985   0016DA                     
  2986                           ; BSR set to: 0
  2987   0016DA  90D8               	bcf	status,0,c
  2988   0016DC  31F1               	rrcf	___fladd@grs& (0+255),w,b
  2989   0016DE  0901               	iorlw	1
  2990   0016E0  6FF1               	movwf	___fladd@grs& (0+255),b
  2991   0016E2  EF75  F00B         	goto	l7926
  2992   0016E6                     l7924:
  2993                           
  2994                           ; BSR set to: 0
  2995   0016E6  90D8               	bcf	status,0,c
  2996   0016E8  33F1               	rrcf	___fladd@grs& (0+255),f,b
  2997   0016EA                     l7926:
  2998                           
  2999                           ; BSR set to: 0
  3000   0016EA  A1E6               	btfss	___fladd@b& (0+255),0,b
  3001   0016EC  EF7A  F00B         	goto	u7231
  3002   0016F0  EF7C  F00B         	goto	u7230
  3003   0016F4                     u7231:
  3004   0016F4  EF7D  F00B         	goto	l7930
  3005   0016F8                     u7230:
  3006   0016F8                     
  3007                           ; BSR set to: 0
  3008   0016F8  8FF1               	bsf	___fladd@grs& (0+255),7,b
  3009   0016FA                     l7930:
  3010                           
  3011                           ; BSR set to: 0
  3012   0016FA  35E9               	rlcf	(___fladd@b+3)& (0+255),w,b
  3013   0016FC  33E9               	rrcf	(___fladd@b+3)& (0+255),f,b
  3014   0016FE  33E8               	rrcf	(___fladd@b+2)& (0+255),f,b
  3015   001700  33E7               	rrcf	(___fladd@b+1)& (0+255),f,b
  3016   001702  33E6               	rrcf	___fladd@b& (0+255),f,b
  3017   001704                     
  3018                           ; BSR set to: 0
  3019   001704  2BF0               	incf	___fladd@bexp& (0+255),f,b
  3020   001706                     l2149:
  3021                           
  3022                           ; BSR set to: 0
  3023   001706  51EF               	movf	___fladd@aexp& (0+255),w,b
  3024   001708  5DF0               	subwf	___fladd@bexp& (0+255),w,b
  3025   00170A  A0D8               	btfss	status,0,c
  3026   00170C  EF8A  F00B         	goto	u7241
  3027   001710  EF8C  F00B         	goto	u7240
  3028   001714                     u7241:
  3029   001714  EF66  F00B         	goto	l2150
  3030   001718                     u7240:
  3031   001718                     l2148:
  3032                           
  3033                           ; BSR set to: 0
  3034   001718  BDEE               	btfsc	___fladd@signs& (0+255),6,b
  3035   00171A  EF91  F00B         	goto	u7251
  3036   00171E  EF93  F00B         	goto	u7250
  3037   001722                     u7251:
  3038   001722  EFD3  F00B         	goto	l7958
  3039   001726                     u7250:
  3040   001726                     
  3041                           ; BSR set to: 0
  3042   001726  51F0               	movf	___fladd@bexp& (0+255),w,b
  3043   001728  A4D8               	btfss	status,2,c
  3044   00172A  EF99  F00B         	goto	u7261
  3045   00172E  EF9B  F00B         	goto	u7260
  3046   001732                     u7261:
  3047   001732  EFA5  F00B         	goto	l7940
  3048   001736                     u7260:
  3049   001736                     
  3050                           ; BSR set to: 0
  3051   001736  0E00               	movlw	0
  3052   001738  6FE6               	movwf	?___fladd& (0+255),b
  3053   00173A  0E00               	movlw	0
  3054   00173C  6FE7               	movwf	(?___fladd+1)& (0+255),b
  3055   00173E  0E00               	movlw	0
  3056   001740  6FE8               	movwf	(?___fladd+2)& (0+255),b
  3057   001742  0E00               	movlw	0
  3058   001744  6FE9               	movwf	(?___fladd+3)& (0+255),b
  3059   001746  EFF4  F00C         	goto	l2157
  3060   00174A                     l7940:
  3061                           
  3062                           ; BSR set to: 0
  3063   00174A  51EA               	movf	___fladd@a& (0+255),w,b
  3064   00174C  27E6               	addwf	___fladd@b& (0+255),f,b
  3065   00174E  51EB               	movf	(___fladd@a+1)& (0+255),w,b
  3066   001750  23E7               	addwfc	(___fladd@b+1)& (0+255),f,b
  3067   001752  51EC               	movf	(___fladd@a+2)& (0+255),w,b
  3068   001754  23E8               	addwfc	(___fladd@b+2)& (0+255),f,b
  3069   001756  51ED               	movf	(___fladd@a+3)& (0+255),w,b
  3070   001758  23E9               	addwfc	(___fladd@b+3)& (0+255),f,b
  3071   00175A                     
  3072                           ; BSR set to: 0
  3073   00175A  A1E9               	btfss	(___fladd@b+3)& (0+255),0,b
  3074   00175C  EFB2  F00B         	goto	u7271
  3075   001760  EFB4  F00B         	goto	u7270
  3076   001764                     u7271:
  3077   001764  EF60  F00C         	goto	l7994
  3078   001768                     u7270:
  3079   001768                     
  3080                           ; BSR set to: 0
  3081   001768  A1F1               	btfss	___fladd@grs& (0+255),0,b
  3082   00176A  EFB9  F00B         	goto	u7281
  3083   00176E  EFBB  F00B         	goto	u7280
  3084   001772                     u7281:
  3085   001772  EFC1  F00B         	goto	l7948
  3086   001776                     u7280:
  3087   001776                     
  3088                           ; BSR set to: 0
  3089   001776  90D8               	bcf	status,0,c
  3090   001778  31F1               	rrcf	___fladd@grs& (0+255),w,b
  3091   00177A  0901               	iorlw	1
  3092   00177C  6FF1               	movwf	___fladd@grs& (0+255),b
  3093   00177E  EFC3  F00B         	goto	l7950
  3094   001782                     l7948:
  3095                           
  3096                           ; BSR set to: 0
  3097   001782  90D8               	bcf	status,0,c
  3098   001784  33F1               	rrcf	___fladd@grs& (0+255),f,b
  3099   001786                     l7950:
  3100                           
  3101                           ; BSR set to: 0
  3102   001786  A1E6               	btfss	___fladd@b& (0+255),0,b
  3103   001788  EFC8  F00B         	goto	u7291
  3104   00178C  EFCA  F00B         	goto	u7290
  3105   001790                     u7291:
  3106   001790  EFCB  F00B         	goto	l7954
  3107   001794                     u7290:
  3108   001794                     
  3109                           ; BSR set to: 0
  3110   001794  8FF1               	bsf	___fladd@grs& (0+255),7,b
  3111   001796                     l7954:
  3112                           
  3113                           ; BSR set to: 0
  3114   001796  35E9               	rlcf	(___fladd@b+3)& (0+255),w,b
  3115   001798  33E9               	rrcf	(___fladd@b+3)& (0+255),f,b
  3116   00179A  33E8               	rrcf	(___fladd@b+2)& (0+255),f,b
  3117   00179C  33E7               	rrcf	(___fladd@b+1)& (0+255),f,b
  3118   00179E  33E6               	rrcf	___fladd@b& (0+255),f,b
  3119   0017A0                     
  3120                           ; BSR set to: 0
  3121   0017A0  2BF0               	incf	___fladd@bexp& (0+255),f,b
  3122   0017A2  EF60  F00C         	goto	l7994
  3123   0017A6                     l7958:
  3124                           
  3125                           ; BSR set to: 0
  3126   0017A6  51EA               	movf	___fladd@a& (0+255),w,b
  3127   0017A8  5DE6               	subwf	___fladd@b& (0+255),w,b
  3128   0017AA  51EB               	movf	(___fladd@a+1)& (0+255),w,b
  3129   0017AC  59E7               	subwfb	(___fladd@b+1)& (0+255),w,b
  3130   0017AE  51EC               	movf	(___fladd@a+2)& (0+255),w,b
  3131   0017B0  59E8               	subwfb	(___fladd@b+2)& (0+255),w,b
  3132   0017B2  51E9               	movf	(___fladd@b+3)& (0+255),w,b
  3133   0017B4  0A80               	xorlw	128
  3134   0017B6  6E41               	movwf	??___fladd^0,c
  3135   0017B8  51ED               	movf	(___fladd@a+3)& (0+255),w,b
  3136   0017BA  0A80               	xorlw	128
  3137   0017BC  5841               	subwfb	??___fladd^0,w,c
  3138   0017BE  B0D8               	btfsc	status,0,c
  3139   0017C0  EFE4  F00B         	goto	u7301
  3140   0017C4  EFE6  F00B         	goto	u7300
  3141   0017C8                     u7301:
  3142   0017C8  EF11  F00C         	goto	l7968
  3143   0017CC                     u7300:
  3144   0017CC                     
  3145                           ; BSR set to: 0
  3146   0017CC  51E6               	movf	___fladd@b& (0+255),w,b
  3147   0017CE  5DEA               	subwf	___fladd@a& (0+255),w,b
  3148   0017D0  6E41               	movwf	??___fladd^0,c
  3149   0017D2  51E7               	movf	(___fladd@b+1)& (0+255),w,b
  3150   0017D4  59EB               	subwfb	(___fladd@a+1)& (0+255),w,b
  3151   0017D6  6E42               	movwf	(??___fladd+1)^0,c
  3152   0017D8  51E8               	movf	(___fladd@b+2)& (0+255),w,b
  3153   0017DA  59EC               	subwfb	(___fladd@a+2)& (0+255),w,b
  3154   0017DC  6E43               	movwf	(??___fladd+2)^0,c
  3155   0017DE  51E9               	movf	(___fladd@b+3)& (0+255),w,b
  3156   0017E0  59ED               	subwfb	(___fladd@a+3)& (0+255),w,b
  3157   0017E2  6E44               	movwf	(??___fladd+3)^0,c
  3158   0017E4  0EFF               	movlw	255
  3159   0017E6  2441               	addwf	??___fladd^0,w,c
  3160   0017E8  6FE6               	movwf	___fladd@b& (0+255),b
  3161   0017EA  0EFF               	movlw	255
  3162   0017EC  2042               	addwfc	(??___fladd+1)^0,w,c
  3163   0017EE  6FE7               	movwf	(___fladd@b+1)& (0+255),b
  3164   0017F0  0EFF               	movlw	255
  3165   0017F2  2043               	addwfc	(??___fladd+2)^0,w,c
  3166   0017F4  6FE8               	movwf	(___fladd@b+2)& (0+255),b
  3167   0017F6  0EFF               	movlw	255
  3168   0017F8  2044               	addwfc	(??___fladd+3)^0,w,c
  3169   0017FA  6FE9               	movwf	(___fladd@b+3)& (0+255),b
  3170   0017FC  0E80               	movlw	128
  3171   0017FE  1BEE               	xorwf	___fladd@signs& (0+255),f,b
  3172   001800                     
  3173                           ; BSR set to: 0
  3174   001800  6DF1               	negf	___fladd@grs& (0+255),b
  3175   001802                     
  3176                           ; BSR set to: 0
  3177   001802  51F1               	movf	___fladd@grs& (0+255),w,b
  3178   001804  A4D8               	btfss	status,2,c
  3179   001806  EF07  F00C         	goto	u7311
  3180   00180A  EF09  F00C         	goto	u7310
  3181   00180E                     u7311:
  3182   00180E  EF19  F00C         	goto	l2165
  3183   001812                     u7310:
  3184   001812                     
  3185                           ; BSR set to: 0
  3186   001812  0E01               	movlw	1
  3187   001814  27E6               	addwf	___fladd@b& (0+255),f,b
  3188   001816  0E00               	movlw	0
  3189   001818  23E7               	addwfc	(___fladd@b+1)& (0+255),f,b
  3190   00181A  23E8               	addwfc	(___fladd@b+2)& (0+255),f,b
  3191   00181C  23E9               	addwfc	(___fladd@b+3)& (0+255),f,b
  3192   00181E  EF19  F00C         	goto	l2165
  3193   001822                     l7968:
  3194                           
  3195                           ; BSR set to: 0
  3196   001822  51EA               	movf	___fladd@a& (0+255),w,b
  3197   001824  5FE6               	subwf	___fladd@b& (0+255),f,b
  3198   001826  51EB               	movf	(___fladd@a+1)& (0+255),w,b
  3199   001828  5BE7               	subwfb	(___fladd@b+1)& (0+255),f,b
  3200   00182A  51EC               	movf	(___fladd@a+2)& (0+255),w,b
  3201   00182C  5BE8               	subwfb	(___fladd@b+2)& (0+255),f,b
  3202   00182E  51ED               	movf	(___fladd@a+3)& (0+255),w,b
  3203   001830  5BE9               	subwfb	(___fladd@b+3)& (0+255),f,b
  3204   001832                     l2165:
  3205                           
  3206                           ; BSR set to: 0
  3207   001832  51E6               	movf	___fladd@b& (0+255),w,b
  3208   001834  11E7               	iorwf	(___fladd@b+1)& (0+255),w,b
  3209   001836  11E8               	iorwf	(___fladd@b+2)& (0+255),w,b
  3210   001838  11E9               	iorwf	(___fladd@b+3)& (0+255),w,b
  3211   00183A  A4D8               	btfss	status,2,c
  3212   00183C  EF22  F00C         	goto	u7321
  3213   001840  EF24  F00C         	goto	u7320
  3214   001844                     u7321:
  3215   001844  EF59  F00C         	goto	l7992
  3216   001848                     u7320:
  3217   001848                     
  3218                           ; BSR set to: 0
  3219   001848  51F1               	movf	___fladd@grs& (0+255),w,b
  3220   00184A  A4D8               	btfss	status,2,c
  3221   00184C  EF2A  F00C         	goto	u7331
  3222   001850  EF2C  F00C         	goto	u7330
  3223   001854                     u7331:
  3224   001854  EF59  F00C         	goto	l7992
  3225   001858                     u7330:
  3226   001858                     
  3227                           ; BSR set to: 0
  3228   001858  0E00               	movlw	0
  3229   00185A  6FE6               	movwf	?___fladd& (0+255),b
  3230   00185C  0E00               	movlw	0
  3231   00185E  6FE7               	movwf	(?___fladd+1)& (0+255),b
  3232   001860  0E00               	movlw	0
  3233   001862  6FE8               	movwf	(?___fladd+2)& (0+255),b
  3234   001864  0E00               	movlw	0
  3235   001866  6FE9               	movwf	(?___fladd+3)& (0+255),b
  3236   001868  EFF4  F00C         	goto	l2157
  3237   00186C                     l7976:
  3238                           
  3239                           ; BSR set to: 0
  3240   00186C  90D8               	bcf	status,0,c
  3241   00186E  37E6               	rlcf	___fladd@b& (0+255),f,b
  3242   001870  37E7               	rlcf	(___fladd@b+1)& (0+255),f,b
  3243   001872  37E8               	rlcf	(___fladd@b+2)& (0+255),f,b
  3244   001874  37E9               	rlcf	(___fladd@b+3)& (0+255),f,b
  3245   001876                     
  3246                           ; BSR set to: 0
  3247   001876  AFF1               	btfss	___fladd@grs& (0+255),7,b
  3248   001878  EF40  F00C         	goto	u7341
  3249   00187C  EF42  F00C         	goto	u7340
  3250   001880                     u7341:
  3251   001880  EF43  F00C         	goto	l7982
  3252   001884                     u7340:
  3253   001884                     
  3254                           ; BSR set to: 0
  3255   001884  81E6               	bsf	___fladd@b& (0+255),0,b
  3256   001886                     l7982:
  3257                           
  3258                           ; BSR set to: 0
  3259   001886  A1F1               	btfss	___fladd@grs& (0+255),0,b
  3260   001888  EF48  F00C         	goto	u7351
  3261   00188C  EF4A  F00C         	goto	u7350
  3262   001890                     u7351:
  3263   001890  EF4E  F00C         	goto	l7986
  3264   001894                     u7350:
  3265   001894                     
  3266                           ; BSR set to: 0
  3267   001894  80D8               	bsf	status,0,c
  3268   001896  37F1               	rlcf	___fladd@grs& (0+255),f,b
  3269   001898  EF50  F00C         	goto	l7988
  3270   00189C                     l7986:
  3271                           
  3272                           ; BSR set to: 0
  3273   00189C  90D8               	bcf	status,0,c
  3274   00189E  37F1               	rlcf	___fladd@grs& (0+255),f,b
  3275   0018A0                     l7988:
  3276                           
  3277                           ; BSR set to: 0
  3278   0018A0  51F0               	movf	___fladd@bexp& (0+255),w,b
  3279   0018A2  B4D8               	btfsc	status,2,c
  3280   0018A4  EF56  F00C         	goto	u7361
  3281   0018A8  EF58  F00C         	goto	u7360
  3282   0018AC                     u7361:
  3283   0018AC  EF59  F00C         	goto	l7992
  3284   0018B0                     u7360:
  3285   0018B0                     
  3286                           ; BSR set to: 0
  3287   0018B0  07F0               	decf	___fladd@bexp& (0+255),f,b
  3288   0018B2                     l7992:
  3289                           
  3290                           ; BSR set to: 0
  3291   0018B2  AFE8               	btfss	(___fladd@b+2)& (0+255),7,b
  3292   0018B4  EF5E  F00C         	goto	u7371
  3293   0018B8  EF60  F00C         	goto	u7370
  3294   0018BC                     u7371:
  3295   0018BC  EF36  F00C         	goto	l7976
  3296   0018C0                     u7370:
  3297   0018C0                     l7994:
  3298                           
  3299                           ; BSR set to: 0
  3300   0018C0  0E00               	movlw	0
  3301   0018C2  6FEF               	movwf	___fladd@aexp& (0+255),b
  3302   0018C4                     
  3303                           ; BSR set to: 0
  3304   0018C4  AFF1               	btfss	___fladd@grs& (0+255),7,b
  3305   0018C6  EF67  F00C         	goto	u7381
  3306   0018CA  EF69  F00C         	goto	u7380
  3307   0018CE                     u7381:
  3308   0018CE  EF81  F00C         	goto	l2174
  3309   0018D2                     u7380:
  3310   0018D2                     
  3311                           ; BSR set to: 0
  3312   0018D2  C0F1  F041         	movff	___fladd@grs,??___fladd
  3313   0018D6  0E7F               	movlw	127
  3314   0018D8  1641               	andwf	??___fladd^0,f,c
  3315   0018DA  B4D8               	btfsc	status,2,c
  3316   0018DC  EF72  F00C         	goto	u7391
  3317   0018E0  EF74  F00C         	goto	u7390
  3318   0018E4                     u7391:
  3319   0018E4  EF78  F00C         	goto	l2175
  3320   0018E8                     u7390:
  3321   0018E8                     l8000:
  3322                           
  3323                           ; BSR set to: 0
  3324   0018E8  0E01               	movlw	1
  3325   0018EA  6FEF               	movwf	___fladd@aexp& (0+255),b
  3326   0018EC  EF81  F00C         	goto	l2174
  3327   0018F0                     l2175:
  3328                           
  3329                           ; BSR set to: 0
  3330   0018F0  A1E6               	btfss	___fladd@b& (0+255),0,b
  3331   0018F2  EF7D  F00C         	goto	u7401
  3332   0018F6  EF7F  F00C         	goto	u7400
  3333   0018FA                     u7401:
  3334   0018FA  EF81  F00C         	goto	l2174
  3335   0018FE                     u7400:
  3336   0018FE  EF74  F00C         	goto	l8000
  3337   001902                     l2174:
  3338                           
  3339                           ; BSR set to: 0
  3340   001902  51EF               	movf	___fladd@aexp& (0+255),w,b
  3341   001904  B4D8               	btfsc	status,2,c
  3342   001906  EF87  F00C         	goto	u7411
  3343   00190A  EF89  F00C         	goto	u7410
  3344   00190E                     u7411:
  3345   00190E  EFB4  F00C         	goto	l8012
  3346   001912                     u7410:
  3347   001912                     
  3348                           ; BSR set to: 0
  3349   001912  0E01               	movlw	1
  3350   001914  27E6               	addwf	___fladd@b& (0+255),f,b
  3351   001916  0E00               	movlw	0
  3352   001918  23E7               	addwfc	(___fladd@b+1)& (0+255),f,b
  3353   00191A  23E8               	addwfc	(___fladd@b+2)& (0+255),f,b
  3354   00191C  23E9               	addwfc	(___fladd@b+3)& (0+255),f,b
  3355   00191E                     
  3356                           ; BSR set to: 0
  3357   00191E  A1E9               	btfss	(___fladd@b+3)& (0+255),0,b
  3358   001920  EF94  F00C         	goto	u7421
  3359   001924  EF96  F00C         	goto	u7420
  3360   001928                     u7421:
  3361   001928  EFB4  F00C         	goto	l8012
  3362   00192C                     u7420:
  3363   00192C                     
  3364                           ; BSR set to: 0
  3365   00192C  C0E6  F041         	movff	___fladd@b,??___fladd
  3366   001930  C0E7  F042         	movff	___fladd@b+1,??___fladd+1
  3367   001934  C0E8  F043         	movff	___fladd@b+2,??___fladd+2
  3368   001938  C0E9  F044         	movff	___fladd@b+3,??___fladd+3
  3369   00193C  3444               	rlcf	(??___fladd+3)^0,w,c
  3370   00193E  3244               	rrcf	(??___fladd+3)^0,f,c
  3371   001940  3243               	rrcf	(??___fladd+2)^0,f,c
  3372   001942  3242               	rrcf	(??___fladd+1)^0,f,c
  3373   001944  3241               	rrcf	??___fladd^0,f,c
  3374   001946  C041  F0E6         	movff	??___fladd,___fladd@b
  3375   00194A  C042  F0E7         	movff	??___fladd+1,___fladd@b+1
  3376   00194E  C043  F0E8         	movff	??___fladd+2,___fladd@b+2
  3377   001952  C044  F0E9         	movff	??___fladd+3,___fladd@b+3
  3378   001956  29F0               	incf	___fladd@bexp& (0+255),w,b
  3379   001958  B4D8               	btfsc	status,2,c
  3380   00195A  EFB1  F00C         	goto	u7431
  3381   00195E  EFB3  F00C         	goto	u7430
  3382   001962                     u7431:
  3383   001962  EFB4  F00C         	goto	l8012
  3384   001966                     u7430:
  3385   001966                     
  3386                           ; BSR set to: 0
  3387   001966  2BF0               	incf	___fladd@bexp& (0+255),f,b
  3388   001968                     l8012:
  3389                           
  3390                           ; BSR set to: 0
  3391   001968  29F0               	incf	___fladd@bexp& (0+255),w,b
  3392   00196A  B4D8               	btfsc	status,2,c
  3393   00196C  EFBA  F00C         	goto	u7441
  3394   001970  EFBC  F00C         	goto	u7440
  3395   001974                     u7441:
  3396   001974  EFC4  F00C         	goto	l8016
  3397   001978                     u7440:
  3398   001978                     
  3399                           ; BSR set to: 0
  3400   001978  51F0               	movf	___fladd@bexp& (0+255),w,b
  3401   00197A  A4D8               	btfss	status,2,c
  3402   00197C  EFC2  F00C         	goto	u7451
  3403   001980  EFC4  F00C         	goto	u7450
  3404   001984                     u7451:
  3405   001984  EFD6  F00C         	goto	l8020
  3406   001988                     u7450:
  3407   001988                     l8016:
  3408                           
  3409                           ; BSR set to: 0
  3410   001988  0E00               	movlw	0
  3411   00198A  6FE6               	movwf	___fladd@b& (0+255),b
  3412   00198C  0E00               	movlw	0
  3413   00198E  6FE7               	movwf	(___fladd@b+1)& (0+255),b
  3414   001990  0E00               	movlw	0
  3415   001992  6FE8               	movwf	(___fladd@b+2)& (0+255),b
  3416   001994  0E00               	movlw	0
  3417   001996  6FE9               	movwf	(___fladd@b+3)& (0+255),b
  3418   001998  51F0               	movf	___fladd@bexp& (0+255),w,b
  3419   00199A  A4D8               	btfss	status,2,c
  3420   00199C  EFD2  F00C         	goto	u7461
  3421   0019A0  EFD4  F00C         	goto	u7460
  3422   0019A4                     u7461:
  3423   0019A4  EFD6  F00C         	goto	l8020
  3424   0019A8                     u7460:
  3425   0019A8                     
  3426                           ; BSR set to: 0
  3427   0019A8  0E00               	movlw	0
  3428   0019AA  6FEE               	movwf	___fladd@signs& (0+255),b
  3429   0019AC                     l8020:
  3430                           
  3431                           ; BSR set to: 0
  3432   0019AC  A1F0               	btfss	___fladd@bexp& (0+255),0,b
  3433   0019AE  EFDB  F00C         	goto	u7471
  3434   0019B2  EFDD  F00C         	goto	u7470
  3435   0019B6                     u7471:
  3436   0019B6  EFE0  F00C         	goto	l8024
  3437   0019BA                     u7470:
  3438   0019BA                     
  3439                           ; BSR set to: 0
  3440   0019BA  8FE8               	bsf	(___fladd@b+2)& (0+255),7,b
  3441   0019BC  EFE1  F00C         	goto	l8026
  3442   0019C0                     l8024:
  3443                           
  3444                           ; BSR set to: 0
  3445   0019C0  9FE8               	bcf	(___fladd@b+2)& (0+255),7,b
  3446   0019C2                     l8026:
  3447                           
  3448                           ; BSR set to: 0
  3449   0019C2  90D8               	bcf	status,0,c
  3450   0019C4  31F0               	rrcf	___fladd@bexp& (0+255),w,b
  3451   0019C6  6FE9               	movwf	(___fladd@b+3)& (0+255),b
  3452   0019C8                     
  3453                           ; BSR set to: 0
  3454   0019C8  AFEE               	btfss	___fladd@signs& (0+255),7,b
  3455   0019CA  EFE9  F00C         	goto	u7481
  3456   0019CE  EFEB  F00C         	goto	u7480
  3457   0019D2                     u7481:
  3458   0019D2  EFEC  F00C         	goto	l8032
  3459   0019D6                     u7480:
  3460   0019D6                     
  3461                           ; BSR set to: 0
  3462   0019D6  8FE9               	bsf	(___fladd@b+3)& (0+255),7,b
  3463   0019D8                     l8032:
  3464                           
  3465                           ; BSR set to: 0
  3466   0019D8  C0E6  F0E6         	movff	___fladd@b,?___fladd
  3467   0019DC  C0E7  F0E7         	movff	___fladd@b+1,?___fladd+1
  3468   0019E0  C0E8  F0E8         	movff	___fladd@b+2,?___fladd+2
  3469   0019E4  C0E9  F0E9         	movff	___fladd@b+3,?___fladd+3
  3470   0019E8                     l2157:
  3471                           
  3472                           ; BSR set to: 0
  3473   0019E8  0012               	return		;funcret
  3474   0019EA                     __end_of___fladd:
  3475                           	callstack 0
  3476                           
  3477 ;; *************** function _USART_ASYNCRONOUS_TX_Init *****************
  3478 ;; Defined at:
  3479 ;;		line 284 in file "MCAL_Layer/USART/hal_usart.c"
  3480 ;; Parameters:    Size  Location     Type
  3481 ;;  _usart          2   25[COMRAM] PTR const struct .
  3482 ;;		 -> usart_module_int_init@usart_obj(18), usart_module_init@usart_obj(18), 
  3483 ;; Auto vars:     Size  Location     Type
  3484 ;;		None
  3485 ;; Return value:  Size  Location     Type
  3486 ;;                  1    wreg      void 
  3487 ;; Registers used:
  3488 ;;		wreg, fsr2l, fsr2h, status,2, status,0
  3489 ;; Tracked objects:
  3490 ;;		On entry : 0/0
  3491 ;;		On exit  : 0/0
  3492 ;;		Unchanged: 0/0
  3493 ;; Data sizes:     COMRAM   BANK0   BANK1   BANK2   BANK3   BANK4   BANK5   BANK6   BANK7   BANK8   BANK9  BANK10  BANK1
      +1  BANK12  BANK13  BANK14  BANK15
  3494 ;;      Params:         2       0       0       0       0       0       0       0       0       0       0       0       
      +0       0       0       0       0
  3495 ;;      Locals:         0       0       0       0       0       0       0       0       0       0       0       0       
      +0       0       0       0       0
  3496 ;;      Temps:          0       0       0       0       0       0       0       0       0       0       0       0       
      +0       0       0       0       0
  3497 ;;      Totals:         2       0       0       0       0       0       0       0       0       0       0       0       
      +0       0       0       0       0
  3498 ;;Total ram usage:        2 bytes
  3499 ;; Hardware stack levels used: 1
  3500 ;; Hardware stack levels required when called: 5
  3501 ;; This function calls:
  3502 ;;		Nothing
  3503 ;; This function is called by:
  3504 ;;		_USART_Asynchronous_Initialize
  3505 ;; This function uses a non-reentrant model
  3506 ;;
  3507                           
  3508                           	psect	text8
  3509   002C38                     __ptext8:
  3510                           	callstack 0
  3511   002C38                     _USART_ASYNCRONOUS_TX_Init:
  3512                           	callstack 23
  3513   002C38                     
  3514                           ;MCAL_Layer/USART/hal_usart.c: 284: static void USART_ASYNCRONOUS_TX_Init(const usart_t 
      +                          *_usart);MCAL_Layer/USART/hal_usart.c: 285: {;MCAL_Layer/USART/hal_usart.c: 286:     if(
      +                          1 == _usart->usart_tx_cfg.usart_enable_tx)
  3515   002C38  EE20 F005          	lfsr	2,5
  3516   002C3C  501A               	movf	USART_ASYNCRONOUS_TX_Init@_usart^0,w,c
  3517   002C3E  26D9               	addwf	fsr2l,f,c
  3518   002C40  501B               	movf	(USART_ASYNCRONOUS_TX_Init@_usart+1)^0,w,c
  3519   002C42  22DA               	addwfc	fsr2h,f,c
  3520   002C44  AADF               	btfss	indf2,5,c
  3521   002C46  EF27  F016         	goto	u7891
  3522   002C4A  EF29  F016         	goto	u7890
  3523   002C4E                     u7891:
  3524   002C4E  EF75  F016         	goto	l1526
  3525   002C52                     u7890:
  3526   002C52                     
  3527                           ;MCAL_Layer/USART/hal_usart.c: 287:     {;MCAL_Layer/USART/hal_usart.c: 289:         TXS
      +                          TAbits.TXEN = 1;
  3528   002C52  8AAC               	bsf	172,5,c	;volatile
  3529   002C54                     
  3530                           ;MCAL_Layer/USART/hal_usart.c: 292:         USART_TxDefaultInterruptHandler = _usart->US
      +                          ART_TxDefaultInterruptHandler;
  3531   002C54  EE20 F00A          	lfsr	2,10
  3532   002C58  501A               	movf	USART_ASYNCRONOUS_TX_Init@_usart^0,w,c
  3533   002C5A  26D9               	addwf	fsr2l,f,c
  3534   002C5C  501B               	movf	(USART_ASYNCRONOUS_TX_Init@_usart+1)^0,w,c
  3535   002C5E  22DA               	addwfc	fsr2h,f,c
  3536   002C60  CFDE F04D          	movff	postinc2,_USART_TxDefaultInterruptHandler@hal_usart$F3869
  3537   002C64  CFDD F04E          	movff	postdec2,_USART_TxDefaultInterruptHandler@hal_usart$F3869+1
  3538                           
  3539                           ;MCAL_Layer/USART/hal_usart.c: 295:         if(1 == _usart->usart_tx_cfg.usart_enable_tx
      +                          _interrupt)
  3540   002C68  EE20 F005          	lfsr	2,5
  3541   002C6C  501A               	movf	USART_ASYNCRONOUS_TX_Init@_usart^0,w,c
  3542   002C6E  26D9               	addwf	fsr2l,f,c
  3543   002C70  501B               	movf	(USART_ASYNCRONOUS_TX_Init@_usart+1)^0,w,c
  3544   002C72  22DA               	addwfc	fsr2h,f,c
  3545   002C74  ACDF               	btfss	indf2,6,c
  3546   002C76  EF3F  F016         	goto	u7901
  3547   002C7A  EF41  F016         	goto	u7900
  3548   002C7E                     u7901:
  3549   002C7E  EF47  F016         	goto	l8308
  3550   002C82                     u7900:
  3551   002C82                     
  3552                           ;MCAL_Layer/USART/hal_usart.c: 296:         {;MCAL_Layer/USART/hal_usart.c: 297:        
      +                               PIE1bits.TXIE = 1;
  3553   002C82  889D               	bsf	157,4,c	;volatile
  3554                           
  3555                           ;MCAL_Layer/USART/hal_usart.c: 300:             (PIE1bits.TXIE = 1);
  3556   002C84  889D               	bsf	157,4,c	;volatile
  3557                           
  3558                           ;MCAL_Layer/USART/hal_usart.c: 316:         (INTCONbits.GIE = 1);
  3559   002C86  8EF2               	bsf	242,7,c	;volatile
  3560                           
  3561                           ;MCAL_Layer/USART/hal_usart.c: 317:         (INTCONbits.PEIE = 1);
  3562   002C88  8CF2               	bsf	242,6,c	;volatile
  3563                           
  3564                           ;MCAL_Layer/USART/hal_usart.c: 320:         }
  3565   002C8A  EF55  F016         	goto	l8312
  3566   002C8E                     l8308:
  3567   002C8E  EE20 F005          	lfsr	2,5
  3568   002C92  501A               	movf	USART_ASYNCRONOUS_TX_Init@_usart^0,w,c
  3569   002C94  26D9               	addwf	fsr2l,f,c
  3570   002C96  501B               	movf	(USART_ASYNCRONOUS_TX_Init@_usart+1)^0,w,c
  3571   002C98  22DA               	addwfc	fsr2h,f,c
  3572   002C9A  BCDF               	btfsc	indf2,6,c
  3573   002C9C  EF52  F016         	goto	u7911
  3574   002CA0  EF54  F016         	goto	u7910
  3575   002CA4                     u7911:
  3576   002CA4  EF55  F016         	goto	l8312
  3577   002CA8                     u7910:
  3578   002CA8                     
  3579                           ;MCAL_Layer/USART/hal_usart.c: 322:         {;MCAL_Layer/USART/hal_usart.c: 323:        
      +                               PIE1bits.TXIE = 0;
  3580   002CA8  989D               	bcf	157,4,c	;volatile
  3581   002CAA                     l8312:
  3582                           
  3583                           ;MCAL_Layer/USART/hal_usart.c: 328:         if(1 == _usart->usart_tx_cfg.usart_enable_9b
      +                          it_tx)
  3584   002CAA  EE20 F005          	lfsr	2,5
  3585   002CAE  501A               	movf	USART_ASYNCRONOUS_TX_Init@_usart^0,w,c
  3586   002CB0  26D9               	addwf	fsr2l,f,c
  3587   002CB2  501B               	movf	(USART_ASYNCRONOUS_TX_Init@_usart+1)^0,w,c
  3588   002CB4  22DA               	addwfc	fsr2h,f,c
  3589   002CB6  AEDF               	btfss	indf2,7,c
  3590   002CB8  EF60  F016         	goto	u7921
  3591   002CBC  EF62  F016         	goto	u7920
  3592   002CC0                     u7921:
  3593   002CC0  EF65  F016         	goto	l8316
  3594   002CC4                     u7920:
  3595   002CC4                     
  3596                           ;MCAL_Layer/USART/hal_usart.c: 329:         {;MCAL_Layer/USART/hal_usart.c: 330:        
      +                               TXSTAbits.TX9 = 1;
  3597   002CC4  8CAC               	bsf	172,6,c	;volatile
  3598                           
  3599                           ;MCAL_Layer/USART/hal_usart.c: 331:         }
  3600   002CC6  EF75  F016         	goto	l1526
  3601   002CCA                     l8316:
  3602   002CCA  EE20 F005          	lfsr	2,5
  3603   002CCE  501A               	movf	USART_ASYNCRONOUS_TX_Init@_usart^0,w,c
  3604   002CD0  26D9               	addwf	fsr2l,f,c
  3605   002CD2  501B               	movf	(USART_ASYNCRONOUS_TX_Init@_usart+1)^0,w,c
  3606   002CD4  22DA               	addwfc	fsr2h,f,c
  3607   002CD6  BEDF               	btfsc	indf2,7,c
  3608   002CD8  EF70  F016         	goto	u7931
  3609   002CDC  EF72  F016         	goto	u7930
  3610   002CE0                     u7931:
  3611   002CE0  EF75  F016         	goto	l1522
  3612   002CE4                     u7930:
  3613   002CE4                     
  3614                           ;MCAL_Layer/USART/hal_usart.c: 333:         {;MCAL_Layer/USART/hal_usart.c: 334:        
      +                               TXSTAbits.TX9 = 0;
  3615   002CE4  9CAC               	bcf	172,6,c	;volatile
  3616                           
  3617                           ;MCAL_Layer/USART/hal_usart.c: 335:         }
  3618   002CE6  EF75  F016         	goto	l1526
  3619   002CEA                     l1522:
  3620   002CEA                     l1526:
  3621   002CEA  0012               	return		;funcret
  3622   002CEC                     __end_of_USART_ASYNCRONOUS_TX_Init:
  3623                           	callstack 0
  3624                           
  3625 ;; *************** function _USART_ASYNCRONOUS_RX_Init *****************
  3626 ;; Defined at:
  3627 ;;		line 345 in file "MCAL_Layer/USART/hal_usart.c"
  3628 ;; Parameters:    Size  Location     Type
  3629 ;;  _usart          2   25[COMRAM] PTR const struct .
  3630 ;;		 -> usart_module_int_init@usart_obj(18), usart_module_init@usart_obj(18), 
  3631 ;; Auto vars:     Size  Location     Type
  3632 ;;		None
  3633 ;; Return value:  Size  Location     Type
  3634 ;;                  1    wreg      void 
  3635 ;; Registers used:
  3636 ;;		wreg, fsr2l, fsr2h, status,2, status,0
  3637 ;; Tracked objects:
  3638 ;;		On entry : 0/0
  3639 ;;		On exit  : 0/0
  3640 ;;		Unchanged: 0/0
  3641 ;; Data sizes:     COMRAM   BANK0   BANK1   BANK2   BANK3   BANK4   BANK5   BANK6   BANK7   BANK8   BANK9  BANK10  BANK1
      +1  BANK12  BANK13  BANK14  BANK15
  3642 ;;      Params:         2       0       0       0       0       0       0       0       0       0       0       0       
      +0       0       0       0       0
  3643 ;;      Locals:         0       0       0       0       0       0       0       0       0       0       0       0       
      +0       0       0       0       0
  3644 ;;      Temps:          0       0       0       0       0       0       0       0       0       0       0       0       
      +0       0       0       0       0
  3645 ;;      Totals:         2       0       0       0       0       0       0       0       0       0       0       0       
      +0       0       0       0       0
  3646 ;;Total ram usage:        2 bytes
  3647 ;; Hardware stack levels used: 1
  3648 ;; Hardware stack levels required when called: 5
  3649 ;; This function calls:
  3650 ;;		Nothing
  3651 ;; This function is called by:
  3652 ;;		_USART_Asynchronous_Initialize
  3653 ;; This function uses a non-reentrant model
  3654 ;;
  3655                           
  3656                           	psect	text9
  3657   002B5C                     __ptext9:
  3658                           	callstack 0
  3659   002B5C                     _USART_ASYNCRONOUS_RX_Init:
  3660                           	callstack 23
  3661   002B5C                     
  3662                           ;MCAL_Layer/USART/hal_usart.c: 345: static void USART_ASYNCRONOUS_RX_Init(const usart_t 
      +                          *_usart);MCAL_Layer/USART/hal_usart.c: 346: {;MCAL_Layer/USART/hal_usart.c: 347:     if(
      +                          1 == _usart->usart_rx_cfg.usart_enable_rx)
  3663   002B5C  EE20 F007          	lfsr	2,7
  3664   002B60  501A               	movf	USART_ASYNCRONOUS_RX_Init@_usart^0,w,c
  3665   002B62  26D9               	addwf	fsr2l,f,c
  3666   002B64  501B               	movf	(USART_ASYNCRONOUS_RX_Init@_usart+1)^0,w,c
  3667   002B66  22DA               	addwfc	fsr2h,f,c
  3668   002B68  AADF               	btfss	indf2,5,c
  3669   002B6A  EFB9  F015         	goto	u7941
  3670   002B6E  EFBB  F015         	goto	u7940
  3671   002B72                     u7941:
  3672   002B72  EF1B  F016         	goto	l1539
  3673   002B76                     u7940:
  3674   002B76                     
  3675                           ;MCAL_Layer/USART/hal_usart.c: 348:     {;MCAL_Layer/USART/hal_usart.c: 350:         RCS
      +                          TAbits.CREN = 1;
  3676   002B76  88AB               	bsf	171,4,c	;volatile
  3677   002B78                     
  3678                           ;MCAL_Layer/USART/hal_usart.c: 353:         USART_RxDefaultInterruptHandler = _usart->US
      +                          ART_RxDefaultInterruptHandler;
  3679   002B78  EE20 F00C          	lfsr	2,12
  3680   002B7C  501A               	movf	USART_ASYNCRONOUS_RX_Init@_usart^0,w,c
  3681   002B7E  26D9               	addwf	fsr2l,f,c
  3682   002B80  501B               	movf	(USART_ASYNCRONOUS_RX_Init@_usart+1)^0,w,c
  3683   002B82  22DA               	addwfc	fsr2h,f,c
  3684   002B84  CFDE F04B          	movff	postinc2,_USART_RxDefaultInterruptHandler@hal_usart$F3870
  3685   002B88  CFDD F04C          	movff	postdec2,_USART_RxDefaultInterruptHandler@hal_usart$F3870+1
  3686                           
  3687                           ;MCAL_Layer/USART/hal_usart.c: 356:         USART_FramingErrorHandler = _usart->USART_Fr
      +                          amingErrorHandler;
  3688   002B8C  EE20 F00E          	lfsr	2,14
  3689   002B90  501A               	movf	USART_ASYNCRONOUS_RX_Init@_usart^0,w,c
  3690   002B92  26D9               	addwf	fsr2l,f,c
  3691   002B94  501B               	movf	(USART_ASYNCRONOUS_RX_Init@_usart+1)^0,w,c
  3692   002B96  22DA               	addwfc	fsr2h,f,c
  3693   002B98  CFDE F049          	movff	postinc2,_USART_FramingErrorHandler
  3694   002B9C  CFDD F04A          	movff	postdec2,_USART_FramingErrorHandler+1
  3695                           
  3696                           ;MCAL_Layer/USART/hal_usart.c: 357:         USART_OverrunErrorHandler = _usart->USART_Ov
      +                          errunErrorHandler;
  3697   002BA0  EE20 F010          	lfsr	2,16
  3698   002BA4  501A               	movf	USART_ASYNCRONOUS_RX_Init@_usart^0,w,c
  3699   002BA6  26D9               	addwf	fsr2l,f,c
  3700   002BA8  501B               	movf	(USART_ASYNCRONOUS_RX_Init@_usart+1)^0,w,c
  3701   002BAA  22DA               	addwfc	fsr2h,f,c
  3702   002BAC  CFDE F047          	movff	postinc2,_USART_OverrunErrorHandler
  3703   002BB0  CFDD F048          	movff	postdec2,_USART_OverrunErrorHandler+1
  3704                           
  3705                           ;MCAL_Layer/USART/hal_usart.c: 360:         if(1 == _usart->usart_rx_cfg.usart_enable_rx
      +                          _interrupt)
  3706   002BB4  EE20 F007          	lfsr	2,7
  3707   002BB8  501A               	movf	USART_ASYNCRONOUS_RX_Init@_usart^0,w,c
  3708   002BBA  26D9               	addwf	fsr2l,f,c
  3709   002BBC  501B               	movf	(USART_ASYNCRONOUS_RX_Init@_usart+1)^0,w,c
  3710   002BBE  22DA               	addwfc	fsr2h,f,c
  3711   002BC0  ACDF               	btfss	indf2,6,c
  3712   002BC2  EFE5  F015         	goto	u7951
  3713   002BC6  EFE7  F015         	goto	u7950
  3714   002BCA                     u7951:
  3715   002BCA  EFED  F015         	goto	l8328
  3716   002BCE                     u7950:
  3717   002BCE                     
  3718                           ;MCAL_Layer/USART/hal_usart.c: 361:         {;MCAL_Layer/USART/hal_usart.c: 362:        
      +                               PIE1bits.RCIE = 1;
  3719   002BCE  8A9D               	bsf	157,5,c	;volatile
  3720                           
  3721                           ;MCAL_Layer/USART/hal_usart.c: 365:             (PIE1bits.RCIE = 1);
  3722   002BD0  8A9D               	bsf	157,5,c	;volatile
  3723                           
  3724                           ;MCAL_Layer/USART/hal_usart.c: 381:         (INTCONbits.GIE = 1);
  3725   002BD2  8EF2               	bsf	242,7,c	;volatile
  3726                           
  3727                           ;MCAL_Layer/USART/hal_usart.c: 382:         (INTCONbits.PEIE = 1);
  3728   002BD4  8CF2               	bsf	242,6,c	;volatile
  3729                           
  3730                           ;MCAL_Layer/USART/hal_usart.c: 385:         }
  3731   002BD6  EFFB  F015         	goto	l8332
  3732   002BDA                     l8328:
  3733   002BDA  EE20 F007          	lfsr	2,7
  3734   002BDE  501A               	movf	USART_ASYNCRONOUS_RX_Init@_usart^0,w,c
  3735   002BE0  26D9               	addwf	fsr2l,f,c
  3736   002BE2  501B               	movf	(USART_ASYNCRONOUS_RX_Init@_usart+1)^0,w,c
  3737   002BE4  22DA               	addwfc	fsr2h,f,c
  3738   002BE6  BCDF               	btfsc	indf2,6,c
  3739   002BE8  EFF8  F015         	goto	u7961
  3740   002BEC  EFFA  F015         	goto	u7960
  3741   002BF0                     u7961:
  3742   002BF0  EFFB  F015         	goto	l8332
  3743   002BF4                     u7960:
  3744   002BF4                     
  3745                           ;MCAL_Layer/USART/hal_usart.c: 387:         {;MCAL_Layer/USART/hal_usart.c: 388:        
      +                               PIE1bits.RCIE = 0;
  3746   002BF4  9A9D               	bcf	157,5,c	;volatile
  3747   002BF6                     l8332:
  3748                           
  3749                           ;MCAL_Layer/USART/hal_usart.c: 393:         if(1 == _usart->usart_rx_cfg.usart_enable_9b
      +                          it_rx)
  3750   002BF6  EE20 F007          	lfsr	2,7
  3751   002BFA  501A               	movf	USART_ASYNCRONOUS_RX_Init@_usart^0,w,c
  3752   002BFC  26D9               	addwf	fsr2l,f,c
  3753   002BFE  501B               	movf	(USART_ASYNCRONOUS_RX_Init@_usart+1)^0,w,c
  3754   002C00  22DA               	addwfc	fsr2h,f,c
  3755   002C02  AEDF               	btfss	indf2,7,c
  3756   002C04  EF06  F016         	goto	u7971
  3757   002C08  EF08  F016         	goto	u7970
  3758   002C0C                     u7971:
  3759   002C0C  EF0B  F016         	goto	l8336
  3760   002C10                     u7970:
  3761   002C10                     
  3762                           ;MCAL_Layer/USART/hal_usart.c: 394:         {;MCAL_Layer/USART/hal_usart.c: 395:        
      +                               RCSTAbits.RX9 = 1;
  3763   002C10  8CAB               	bsf	171,6,c	;volatile
  3764                           
  3765                           ;MCAL_Layer/USART/hal_usart.c: 396:         }
  3766   002C12  EF1B  F016         	goto	l1539
  3767   002C16                     l8336:
  3768   002C16  EE20 F007          	lfsr	2,7
  3769   002C1A  501A               	movf	USART_ASYNCRONOUS_RX_Init@_usart^0,w,c
  3770   002C1C  26D9               	addwf	fsr2l,f,c
  3771   002C1E  501B               	movf	(USART_ASYNCRONOUS_RX_Init@_usart+1)^0,w,c
  3772   002C20  22DA               	addwfc	fsr2h,f,c
  3773   002C22  BEDF               	btfsc	indf2,7,c
  3774   002C24  EF16  F016         	goto	u7981
  3775   002C28  EF18  F016         	goto	u7980
  3776   002C2C                     u7981:
  3777   002C2C  EF1B  F016         	goto	l1535
  3778   002C30                     u7980:
  3779   002C30                     
  3780                           ;MCAL_Layer/USART/hal_usart.c: 398:         {;MCAL_Layer/USART/hal_usart.c: 399:        
      +                               RCSTAbits.RX9 = 0;
  3781   002C30  9CAB               	bcf	171,6,c	;volatile
  3782                           
  3783                           ;MCAL_Layer/USART/hal_usart.c: 400:         }
  3784   002C32  EF1B  F016         	goto	l1539
  3785   002C36                     l1535:
  3786   002C36                     l1539:
  3787   002C36  0012               	return		;funcret
  3788   002C38                     __end_of_USART_ASYNCRONOUS_RX_Init:
  3789                           	callstack 0
  3790                           
  3791 ;; *************** function _led_initialize *****************
  3792 ;; Defined at:
  3793 ;;		line 21 in file "ECU_Layer/LED/ecu_led.c"
  3794 ;; Parameters:    Size  Location     Type
  3795 ;;  led             2   39[COMRAM] PTR const struct .
  3796 ;;		 -> led2(1), led1(1), 
  3797 ;; Auto vars:     Size  Location     Type
  3798 ;;  pin_obj         1   43[COMRAM] struct .
  3799 ;;  ret             1   42[COMRAM] unsigned char 
  3800 ;; Return value:  Size  Location     Type
  3801 ;;                  1    wreg      unsigned char 
  3802 ;; Registers used:
  3803 ;;		wreg, fsr2l, fsr2h, status,2, status,0, prodl, prodh, cstack
  3804 ;; Tracked objects:
  3805 ;;		On entry : 0/0
  3806 ;;		On exit  : 0/0
  3807 ;;		Unchanged: 0/0
  3808 ;; Data sizes:     COMRAM   BANK0   BANK1   BANK2   BANK3   BANK4   BANK5   BANK6   BANK7   BANK8   BANK9  BANK10  BANK1
      +1  BANK12  BANK13  BANK14  BANK15
  3809 ;;      Params:         2       0       0       0       0       0       0       0       0       0       0       0       
      +0       0       0       0       0
  3810 ;;      Locals:         2       0       0       0       0       0       0       0       0       0       0       0       
      +0       0       0       0       0
  3811 ;;      Temps:          1       0       0       0       0       0       0       0       0       0       0       0       
      +0       0       0       0       0
  3812 ;;      Totals:         5       0       0       0       0       0       0       0       0       0       0       0       
      +0       0       0       0       0
  3813 ;;Total ram usage:        5 bytes
  3814 ;; Hardware stack levels used: 1
  3815 ;; Hardware stack levels required when called: 7
  3816 ;; This function calls:
  3817 ;;		_gpio_pin_intialize
  3818 ;; This function is called by:
  3819 ;;		_main
  3820 ;; This function uses a non-reentrant model
  3821 ;;
  3822                           
  3823                           	psect	text10
  3824   002DFC                     __ptext10:
  3825                           	callstack 0
  3826   002DFC                     _led_initialize:
  3827                           	callstack 23
  3828   002DFC                     
  3829                           ;ECU_Layer/LED/ecu_led.c: 21: Std_ReturnType led_initialize(const led_t *led);ECU_Layer/
      +                          LED/ecu_led.c: 22: {;ECU_Layer/LED/ecu_led.c: 23:     Std_ReturnType ret = (Std_ReturnTy
      +                          pe)0x01;
  3830   002DFC  0E01               	movlw	1
  3831   002DFE  6E2B               	movwf	led_initialize@ret^0,c
  3832   002E00                     
  3833                           ;ECU_Layer/LED/ecu_led.c: 24:     if(((void*)0) == led)
  3834   002E00  5028               	movf	led_initialize@led^0,w,c
  3835   002E02  1029               	iorwf	(led_initialize@led+1)^0,w,c
  3836   002E04  A4D8               	btfss	status,2,c
  3837   002E06  EF07  F017         	goto	u5241
  3838   002E0A  EF09  F017         	goto	u5240
  3839   002E0E                     u5241:
  3840   002E0E  EF0D  F017         	goto	l270
  3841   002E12                     u5240:
  3842   002E12                     
  3843                           ;ECU_Layer/LED/ecu_led.c: 25:     {;ECU_Layer/LED/ecu_led.c: 26:         ret = (Std_Retu
      +                          rnType)0x00;
  3844   002E12  0E00               	movlw	0
  3845   002E14  6E2B               	movwf	led_initialize@ret^0,c
  3846                           
  3847                           ;ECU_Layer/LED/ecu_led.c: 27:     }
  3848   002E16  EF3A  F017         	goto	l6366
  3849   002E1A                     l270:
  3850                           
  3851                           ;ECU_Layer/LED/ecu_led.c: 29:     {;ECU_Layer/LED/ecu_led.c: 30:         pin_config_t pi
      +                          n_obj = { .port = led->port_name, .pin = led->pin, .direction = GPIO_DIRECTION_OUTPUT,.l
      +                          ogic = led->led_status };
  3852   002E1A  C05E  F02C         	movff	led_initialize@F3048,led_initialize@pin_obj
  3853   002E1E  C028  FFD9         	movff	led_initialize@led,fsr2l
  3854   002E22  C029  FFDA         	movff	led_initialize@led+1,fsr2h
  3855   002E26  50DF               	movf	223,w,c
  3856   002E28  0B0F               	andlw	15
  3857   002E2A  6E2A               	movwf	??_led_initialize^0,c
  3858   002E2C  502C               	movf	led_initialize@pin_obj^0,w,c
  3859   002E2E  182A               	xorwf	??_led_initialize^0,w,c
  3860   002E30  0BF8               	andlw	-8
  3861   002E32  182A               	xorwf	??_led_initialize^0,w,c
  3862   002E34  6E2C               	movwf	led_initialize@pin_obj^0,c
  3863   002E36  C028  FFD9         	movff	led_initialize@led,fsr2l
  3864   002E3A  C029  FFDA         	movff	led_initialize@led+1,fsr2h
  3865   002E3E  38DF               	swapf	223,w,c
  3866   002E40  0B07               	andlw	7
  3867   002E42  6E2A               	movwf	??_led_initialize^0,c
  3868   002E44  462A               	rlncf	??_led_initialize^0,f,c
  3869   002E46  462A               	rlncf	??_led_initialize^0,f,c
  3870   002E48  462A               	rlncf	??_led_initialize^0,f,c
  3871   002E4A  502C               	movf	led_initialize@pin_obj^0,w,c
  3872   002E4C  182A               	xorwf	??_led_initialize^0,w,c
  3873   002E4E  0BC7               	andlw	-57
  3874   002E50  182A               	xorwf	??_led_initialize^0,w,c
  3875   002E52  6E2C               	movwf	led_initialize@pin_obj^0,c
  3876   002E54  9C2C               	bcf	led_initialize@pin_obj^0,6,c
  3877   002E56  C028  FFD9         	movff	led_initialize@led,fsr2l
  3878   002E5A  C029  FFDA         	movff	led_initialize@led+1,fsr2h
  3879   002E5E  AEDF               	btfss	indf2,7,c
  3880   002E60  D002               	bra	u5255
  3881   002E62  8E2C               	bsf	led_initialize@pin_obj^0,7,c
  3882   002E64  D001               	bra	u5257
  3883   002E66                     u5255:
  3884   002E66  9E2C               	bcf	led_initialize@pin_obj^0,7,c
  3885   002E68                     u5257:
  3886   002E68                     
  3887                           ;ECU_Layer/LED/ecu_led.c: 31:         gpio_pin_intialize(&pin_obj);
  3888   002E68  0E2C               	movlw	low led_initialize@pin_obj
  3889   002E6A  6E24               	movwf	gpio_pin_intialize@_pin_config^0,c
  3890   002E6C  0E00               	movlw	high led_initialize@pin_obj
  3891   002E6E  6E25               	movwf	(gpio_pin_intialize@_pin_config+1)^0,c
  3892   002E70  ECEB  F017         	call	_gpio_pin_intialize	;wreg free
  3893   002E74                     l6366:
  3894                           
  3895                           ;ECU_Layer/LED/ecu_led.c: 33:     return ret;
  3896   002E74  502B               	movf	led_initialize@ret^0,w,c
  3897   002E76  0012               	return		;funcret
  3898   002E78                     __end_of_led_initialize:
  3899                           	callstack 0
  3900                           
  3901 ;; *************** function _application_intialize *****************
  3902 ;; Defined at:
  3903 ;;		line 128 in file "application.c"
  3904 ;; Parameters:    Size  Location     Type
  3905 ;;		None
  3906 ;; Auto vars:     Size  Location     Type
  3907 ;;  ret             1    0        unsigned char 
  3908 ;; Return value:  Size  Location     Type
  3909 ;;                  1    wreg      void 
  3910 ;; Registers used:
  3911 ;;		wreg, fsr2l, fsr2h, status,2, status,0, prodl, prodh, cstack
  3912 ;; Tracked objects:
  3913 ;;		On entry : 0/0
  3914 ;;		On exit  : 0/0
  3915 ;;		Unchanged: 0/0
  3916 ;; Data sizes:     COMRAM   BANK0   BANK1   BANK2   BANK3   BANK4   BANK5   BANK6   BANK7   BANK8   BANK9  BANK10  BANK1
      +1  BANK12  BANK13  BANK14  BANK15
  3917 ;;      Params:         0       0       0       0       0       0       0       0       0       0       0       0       
      +0       0       0       0       0
  3918 ;;      Locals:         0       0       0       0       0       0       0       0       0       0       0       0       
      +0       0       0       0       0
  3919 ;;      Temps:          0       0       0       0       0       0       0       0       0       0       0       0       
      +0       0       0       0       0
  3920 ;;      Totals:         0       0       0       0       0       0       0       0       0       0       0       0       
      +0       0       0       0       0
  3921 ;;Total ram usage:        0 bytes
  3922 ;; Hardware stack levels used: 1
  3923 ;; Hardware stack levels required when called: 10
  3924 ;; This function calls:
  3925 ;;		_ecu_layer_intialize
  3926 ;; This function is called by:
  3927 ;;		_main
  3928 ;; This function uses a non-reentrant model
  3929 ;;
  3930                           
  3931                           	psect	text11
  3932   00340C                     __ptext11:
  3933                           	callstack 0
  3934   00340C                     _application_intialize:
  3935                           	callstack 20
  3936   00340C                     
  3937                           ;application.c: 131:     ecu_layer_intialize();
  3938   00340C  EC90  F019         	call	_ecu_layer_intialize	;wreg free
  3939   003410  0012               	return		;funcret
  3940   003412                     __end_of_application_intialize:
  3941                           	callstack 0
  3942                           
  3943 ;; *************** function _ecu_layer_intialize *****************
  3944 ;; Defined at:
  3945 ;;		line 96 in file "ECU_Layer/ecu_layer_init.c"
  3946 ;; Parameters:    Size  Location     Type
  3947 ;;		None
  3948 ;; Auto vars:     Size  Location     Type
  3949 ;;  ret             1    0        unsigned char 
  3950 ;; Return value:  Size  Location     Type
  3951 ;;                  1    wreg      void 
  3952 ;; Registers used:
  3953 ;;		wreg, fsr2l, fsr2h, status,2, status,0, prodl, prodh, cstack
  3954 ;; Tracked objects:
  3955 ;;		On entry : 0/0
  3956 ;;		On exit  : 0/0
  3957 ;;		Unchanged: 0/0
  3958 ;; Data sizes:     COMRAM   BANK0   BANK1   BANK2   BANK3   BANK4   BANK5   BANK6   BANK7   BANK8   BANK9  BANK10  BANK1
      +1  BANK12  BANK13  BANK14  BANK15
  3959 ;;      Params:         0       0       0       0       0       0       0       0       0       0       0       0       
      +0       0       0       0       0
  3960 ;;      Locals:         0       0       0       0       0       0       0       0       0       0       0       0       
      +0       0       0       0       0
  3961 ;;      Temps:          0       0       0       0       0       0       0       0       0       0       0       0       
      +0       0       0       0       0
  3962 ;;      Totals:         0       0       0       0       0       0       0       0       0       0       0       0       
      +0       0       0       0       0
  3963 ;;Total ram usage:        0 bytes
  3964 ;; Hardware stack levels used: 1
  3965 ;; Hardware stack levels required when called: 9
  3966 ;; This function calls:
  3967 ;;		_lcd_4bit_intialize
  3968 ;;		_lcd_8bit_intialize
  3969 ;; This function is called by:
  3970 ;;		_application_intialize
  3971 ;; This function uses a non-reentrant model
  3972 ;;
  3973                           
  3974                           	psect	text12
  3975   003320                     __ptext12:
  3976                           	callstack 0
  3977   003320                     _ecu_layer_intialize:
  3978                           	callstack 20
  3979   003320  0EE0               	movlw	low _lcd_1
  3980   003322  6E2C               	movwf	lcd_4bit_intialize@lcd^0,c
  3981   003324  0E00               	movlw	high _lcd_1
  3982   003326  6E2D               	movwf	(lcd_4bit_intialize@lcd+1)^0,c
  3983   003328  EC83  F013         	call	_lcd_4bit_intialize	;wreg free
  3984   00332C  0ED6               	movlw	low _lcd_2
  3985   00332E  6E30               	movwf	lcd_8bit_intialize@lcd^0,c
  3986   003330  0E00               	movlw	high _lcd_2
  3987   003332  6E31               	movwf	(lcd_8bit_intialize@lcd+1)^0,c
  3988   003334  ECEF  F012         	call	_lcd_8bit_intialize	;wreg free
  3989   003338  0012               	return		;funcret
  3990   00333A                     __end_of_ecu_layer_intialize:
  3991                           	callstack 0
  3992                           
  3993 ;; *************** function _lcd_8bit_intialize *****************
  3994 ;; Defined at:
  3995 ;;		line 275 in file "ECU_Layer/Chr_LCD/ecu_chr_lcd.c"
  3996 ;; Parameters:    Size  Location     Type
  3997 ;;  lcd             2   47[COMRAM] PTR const struct .
  3998 ;;		 -> lcd_2(10), 
  3999 ;; Auto vars:     Size  Location     Type
  4000 ;;  ret             1   52[COMRAM] unsigned char 
  4001 ;;  l_data_pins_    1   51[COMRAM] unsigned char 
  4002 ;; Return value:  Size  Location     Type
  4003 ;;                  1    wreg      unsigned char 
  4004 ;; Registers used:
  4005 ;;		wreg, fsr2l, fsr2h, status,2, status,0, prodl, prodh, cstack
  4006 ;; Tracked objects:
  4007 ;;		On entry : 0/0
  4008 ;;		On exit  : 0/0
  4009 ;;		Unchanged: 0/0
  4010 ;; Data sizes:     COMRAM   BANK0   BANK1   BANK2   BANK3   BANK4   BANK5   BANK6   BANK7   BANK8   BANK9  BANK10  BANK1
      +1  BANK12  BANK13  BANK14  BANK15
  4011 ;;      Params:         2       0       0       0       0       0       0       0       0       0       0       0       
      +0       0       0       0       0
  4012 ;;      Locals:         2       0       0       0       0       0       0       0       0       0       0       0       
      +0       0       0       0       0
  4013 ;;      Temps:          2       0       0       0       0       0       0       0       0       0       0       0       
      +0       0       0       0       0
  4014 ;;      Totals:         6       0       0       0       0       0       0       0       0       0       0       0       
      +0       0       0       0       0
  4015 ;;Total ram usage:        6 bytes
  4016 ;; Hardware stack levels used: 1
  4017 ;; Hardware stack levels required when called: 8
  4018 ;; This function calls:
  4019 ;;		_gpio_pin_intialize
  4020 ;;		_lcd_8bit_send_command
  4021 ;; This function is called by:
  4022 ;;		_ecu_layer_intialize
  4023 ;; This function uses a non-reentrant model
  4024 ;;
  4025                           
  4026                           	psect	text13
  4027   0025DE                     __ptext13:
  4028                           	callstack 0
  4029   0025DE                     _lcd_8bit_intialize:
  4030                           	callstack 20
  4031   0025DE                     
  4032                           ;ECU_Layer/Chr_LCD/ecu_chr_lcd.c: 278:     uint8 l_data_pins_counter = 0;
  4033   0025DE  0E00               	movlw	0
  4034   0025E0  6E34               	movwf	lcd_8bit_intialize@l_data_pins_counter^0,c
  4035   0025E2                     
  4036                           ;ECU_Layer/Chr_LCD/ecu_chr_lcd.c: 279:     if(((void*)0) == lcd)
  4037   0025E2  5030               	movf	lcd_8bit_intialize@lcd^0,w,c
  4038   0025E4  1031               	iorwf	(lcd_8bit_intialize@lcd+1)^0,w,c
  4039   0025E6  A4D8               	btfss	status,2,c
  4040   0025E8  EFF8  F012         	goto	u4971
  4041   0025EC  EFFA  F012         	goto	u4970
  4042   0025F0                     u4971:
  4043   0025F0  EFFE  F012         	goto	l6048
  4044   0025F4                     u4970:
  4045   0025F4                     
  4046                           ;ECU_Layer/Chr_LCD/ecu_chr_lcd.c: 280:     {;ECU_Layer/Chr_LCD/ecu_chr_lcd.c: 281:      
      +                             ret = (Std_ReturnType)0x00;
  4047   0025F4  0E00               	movlw	0
  4048   0025F6  6E35               	movwf	lcd_8bit_intialize@ret^0,c
  4049                           
  4050                           ;ECU_Layer/Chr_LCD/ecu_chr_lcd.c: 282:     }
  4051   0025F8  EF81  F013         	goto	l6084
  4052   0025FC                     l6048:
  4053                           
  4054                           ;ECU_Layer/Chr_LCD/ecu_chr_lcd.c: 284:     {;ECU_Layer/Chr_LCD/ecu_chr_lcd.c: 285:      
      +                             ret = gpio_pin_intialize(&(lcd->lcd_rs));
  4055   0025FC  C030  F024         	movff	lcd_8bit_intialize@lcd,gpio_pin_intialize@_pin_config
  4056   002600  C031  F025         	movff	lcd_8bit_intialize@lcd+1,gpio_pin_intialize@_pin_config+1
  4057   002604  ECEB  F017         	call	_gpio_pin_intialize	;wreg free
  4058   002608  6E35               	movwf	lcd_8bit_intialize@ret^0,c
  4059                           
  4060                           ;ECU_Layer/Chr_LCD/ecu_chr_lcd.c: 286:         ret = gpio_pin_intialize(&(lcd->lcd_en));
  4061   00260A  0E01               	movlw	1
  4062   00260C  2430               	addwf	lcd_8bit_intialize@lcd^0,w,c
  4063   00260E  6E24               	movwf	gpio_pin_intialize@_pin_config^0,c
  4064   002610  0E00               	movlw	0
  4065   002612  2031               	addwfc	(lcd_8bit_intialize@lcd+1)^0,w,c
  4066   002614  6E25               	movwf	(gpio_pin_intialize@_pin_config+1)^0,c
  4067   002616  ECEB  F017         	call	_gpio_pin_intialize	;wreg free
  4068   00261A  6E35               	movwf	lcd_8bit_intialize@ret^0,c
  4069   00261C                     
  4070                           ;ECU_Layer/Chr_LCD/ecu_chr_lcd.c: 287:         for(l_data_pins_counter = 0; l_data_pins_
      +                          counter < 8; l_data_pins_counter++)
  4071   00261C  0E00               	movlw	0
  4072   00261E  6E34               	movwf	lcd_8bit_intialize@l_data_pins_counter^0,c
  4073   002620                     l6056:
  4074   002620  5034               	movf	lcd_8bit_intialize@l_data_pins_counter^0,w,c
  4075   002622  2430               	addwf	lcd_8bit_intialize@lcd^0,w,c
  4076   002624  6E32               	movwf	??_lcd_8bit_intialize^0,c
  4077   002626  0E00               	movlw	0
  4078   002628  2031               	addwfc	(lcd_8bit_intialize@lcd+1)^0,w,c
  4079   00262A  6E33               	movwf	(??_lcd_8bit_intialize+1)^0,c
  4080   00262C  0E02               	movlw	2
  4081   00262E  2432               	addwf	??_lcd_8bit_intialize^0,w,c
  4082   002630  6E24               	movwf	gpio_pin_intialize@_pin_config^0,c
  4083   002632  0E00               	movlw	0
  4084   002634  2033               	addwfc	(??_lcd_8bit_intialize+1)^0,w,c
  4085   002636  6E25               	movwf	(gpio_pin_intialize@_pin_config+1)^0,c
  4086   002638  ECEB  F017         	call	_gpio_pin_intialize	;wreg free
  4087   00263C                     
  4088                           ;ECU_Layer/Chr_LCD/ecu_chr_lcd.c: 290:         }
  4089   00263C  2A34               	incf	lcd_8bit_intialize@l_data_pins_counter^0,f,c
  4090   00263E  0E07               	movlw	7
  4091   002640  6434               	cpfsgt	lcd_8bit_intialize@l_data_pins_counter^0,c
  4092   002642  EF25  F013         	goto	u4981
  4093   002646  EF27  F013         	goto	u4980
  4094   00264A                     u4981:
  4095   00264A  EF10  F013         	goto	l6056
  4096   00264E                     u4980:
  4097   00264E                     
  4098                           ;ECU_Layer/Chr_LCD/ecu_chr_lcd.c: 291:         _delay((unsigned long)((20)*(8000000UL/40
      +                          00.0)));
  4099   00264E  0E34               	movlw	52
  4100   002650  6E32               	movwf	??_lcd_8bit_intialize^0,c
  4101   002652  0EF2               	movlw	242
  4102   002654                     u8097:
  4103   002654  2EE8               	decfsz	wreg,f,c
  4104   002656  D7FE               	bra	u8097
  4105   002658  2E32               	decfsz	??_lcd_8bit_intialize^0,f,c
  4106   00265A  D7FC               	bra	u8097
  4107   00265C  C030  F027         	movff	lcd_8bit_intialize@lcd,lcd_8bit_send_command@lcd
  4108   002660  C031  F028         	movff	lcd_8bit_intialize@lcd+1,lcd_8bit_send_command@lcd+1
  4109   002664  0E38               	movlw	56
  4110   002666  6E29               	movwf	lcd_8bit_send_command@command^0,c
  4111   002668  EC76  F016         	call	_lcd_8bit_send_command	;wreg free
  4112   00266C                     
  4113                           ;ECU_Layer/Chr_LCD/ecu_chr_lcd.c: 293:         _delay((unsigned long)((5)*(8000000UL/400
      +                          0.0)));
  4114   00266C  0E0D               	movlw	13
  4115   00266E  6E32               	movwf	??_lcd_8bit_intialize^0,c
  4116   002670  0EFC               	movlw	252
  4117   002672                     u8107:
  4118   002672  2EE8               	decfsz	wreg,f,c
  4119   002674  D7FE               	bra	u8107
  4120   002676  2E32               	decfsz	??_lcd_8bit_intialize^0,f,c
  4121   002678  D7FC               	bra	u8107
  4122   00267A  C030  F027         	movff	lcd_8bit_intialize@lcd,lcd_8bit_send_command@lcd
  4123   00267E  C031  F028         	movff	lcd_8bit_intialize@lcd+1,lcd_8bit_send_command@lcd+1
  4124   002682  0E38               	movlw	56
  4125   002684  6E29               	movwf	lcd_8bit_send_command@command^0,c
  4126   002686  EC76  F016         	call	_lcd_8bit_send_command	;wreg free
  4127   00268A                     
  4128                           ;ECU_Layer/Chr_LCD/ecu_chr_lcd.c: 295:         _delay((unsigned long)((150)*(8000000UL/4
      +                          000000.0)));
  4129   00268A  0E64               	movlw	100
  4130   00268C                     u8117:
  4131   00268C  2EE8               	decfsz	wreg,f,c
  4132   00268E  D7FE               	bra	u8117
  4133   002690  C030  F027         	movff	lcd_8bit_intialize@lcd,lcd_8bit_send_command@lcd
  4134   002694  C031  F028         	movff	lcd_8bit_intialize@lcd+1,lcd_8bit_send_command@lcd+1
  4135   002698  0E38               	movlw	56
  4136   00269A  6E29               	movwf	lcd_8bit_send_command@command^0,c
  4137   00269C  EC76  F016         	call	_lcd_8bit_send_command	;wreg free
  4138   0026A0  C030  F027         	movff	lcd_8bit_intialize@lcd,lcd_8bit_send_command@lcd
  4139   0026A4  C031  F028         	movff	lcd_8bit_intialize@lcd+1,lcd_8bit_send_command@lcd+1
  4140   0026A8  0E01               	movlw	1
  4141   0026AA  6E29               	movwf	lcd_8bit_send_command@command^0,c
  4142   0026AC  EC76  F016         	call	_lcd_8bit_send_command	;wreg free
  4143   0026B0  C030  F027         	movff	lcd_8bit_intialize@lcd,lcd_8bit_send_command@lcd
  4144   0026B4  C031  F028         	movff	lcd_8bit_intialize@lcd+1,lcd_8bit_send_command@lcd+1
  4145   0026B8  0E02               	movlw	2
  4146   0026BA  6E29               	movwf	lcd_8bit_send_command@command^0,c
  4147   0026BC  EC76  F016         	call	_lcd_8bit_send_command	;wreg free
  4148   0026C0  C030  F027         	movff	lcd_8bit_intialize@lcd,lcd_8bit_send_command@lcd
  4149   0026C4  C031  F028         	movff	lcd_8bit_intialize@lcd+1,lcd_8bit_send_command@lcd+1
  4150   0026C8  0E06               	movlw	6
  4151   0026CA  6E29               	movwf	lcd_8bit_send_command@command^0,c
  4152   0026CC  EC76  F016         	call	_lcd_8bit_send_command	;wreg free
  4153   0026D0  C030  F027         	movff	lcd_8bit_intialize@lcd,lcd_8bit_send_command@lcd
  4154   0026D4  C031  F028         	movff	lcd_8bit_intialize@lcd+1,lcd_8bit_send_command@lcd+1
  4155   0026D8  0E0C               	movlw	12
  4156   0026DA  6E29               	movwf	lcd_8bit_send_command@command^0,c
  4157   0026DC  EC76  F016         	call	_lcd_8bit_send_command	;wreg free
  4158   0026E0  C030  F027         	movff	lcd_8bit_intialize@lcd,lcd_8bit_send_command@lcd
  4159   0026E4  C031  F028         	movff	lcd_8bit_intialize@lcd+1,lcd_8bit_send_command@lcd+1
  4160   0026E8  0E38               	movlw	56
  4161   0026EA  6E29               	movwf	lcd_8bit_send_command@command^0,c
  4162   0026EC  EC76  F016         	call	_lcd_8bit_send_command	;wreg free
  4163   0026F0                     
  4164                           ;ECU_Layer/Chr_LCD/ecu_chr_lcd.c: 303:         ret = lcd_8bit_send_command(lcd, 0x80);
  4165   0026F0  C030  F027         	movff	lcd_8bit_intialize@lcd,lcd_8bit_send_command@lcd
  4166   0026F4  C031  F028         	movff	lcd_8bit_intialize@lcd+1,lcd_8bit_send_command@lcd+1
  4167   0026F8  0E80               	movlw	128
  4168   0026FA  6E29               	movwf	lcd_8bit_send_command@command^0,c
  4169   0026FC  EC76  F016         	call	_lcd_8bit_send_command	;wreg free
  4170   002700  6E35               	movwf	lcd_8bit_intialize@ret^0,c
  4171   002702                     l6084:
  4172                           
  4173                           ;ECU_Layer/Chr_LCD/ecu_chr_lcd.c: 305:     return ret;
  4174   002702  5035               	movf	lcd_8bit_intialize@ret^0,w,c
  4175   002704  0012               	return		;funcret
  4176   002706                     __end_of_lcd_8bit_intialize:
  4177                           	callstack 0
  4178                           
  4179 ;; *************** function _lcd_8bit_send_command *****************
  4180 ;; Defined at:
  4181 ;;		line 316 in file "ECU_Layer/Chr_LCD/ecu_chr_lcd.c"
  4182 ;; Parameters:    Size  Location     Type
  4183 ;;  lcd             2   38[COMRAM] PTR const struct .
  4184 ;;		 -> lcd_2(10), 
  4185 ;;  command         1   40[COMRAM] unsigned char 
  4186 ;; Auto vars:     Size  Location     Type
  4187 ;;  l_pin_counte    1   46[COMRAM] unsigned char 
  4188 ;;  ret             1   45[COMRAM] unsigned char 
  4189 ;; Return value:  Size  Location     Type
  4190 ;;                  1    wreg      unsigned char 
  4191 ;; Registers used:
  4192 ;;		wreg, fsr2l, fsr2h, status,2, status,0, prodl, prodh, cstack
  4193 ;; Tracked objects:
  4194 ;;		On entry : 0/0
  4195 ;;		On exit  : 0/0
  4196 ;;		Unchanged: 0/0
  4197 ;; Data sizes:     COMRAM   BANK0   BANK1   BANK2   BANK3   BANK4   BANK5   BANK6   BANK7   BANK8   BANK9  BANK10  BANK1
      +1  BANK12  BANK13  BANK14  BANK15
  4198 ;;      Params:         3       0       0       0       0       0       0       0       0       0       0       0       
      +0       0       0       0       0
  4199 ;;      Locals:         2       0       0       0       0       0       0       0       0       0       0       0       
      +0       0       0       0       0
  4200 ;;      Temps:          4       0       0       0       0       0       0       0       0       0       0       0       
      +0       0       0       0       0
  4201 ;;      Totals:         9       0       0       0       0       0       0       0       0       0       0       0       
      +0       0       0       0       0
  4202 ;;Total ram usage:        9 bytes
  4203 ;; Hardware stack levels used: 1
  4204 ;; Hardware stack levels required when called: 7
  4205 ;; This function calls:
  4206 ;;		_gpio_pin_write_logic
  4207 ;;		_lcd_8bit_send_enable_signal
  4208 ;; This function is called by:
  4209 ;;		_lcd_8bit_intialize
  4210 ;;		_lcd_8bit_send_custom_char
  4211 ;;		_lcd_8bit_set_cursor
  4212 ;; This function uses a non-reentrant model
  4213 ;;
  4214                           
  4215                           	psect	text14
  4216   002CEC                     __ptext14:
  4217                           	callstack 0
  4218   002CEC                     _lcd_8bit_send_command:
  4219                           	callstack 20
  4220   002CEC                     
  4221                           ;ECU_Layer/Chr_LCD/ecu_chr_lcd.c: 319:     uint8 l_pin_counter = 0;
  4222   002CEC  0E00               	movlw	0
  4223   002CEE  6E2F               	movwf	lcd_8bit_send_command@l_pin_counter^0,c
  4224   002CF0                     
  4225                           ;ECU_Layer/Chr_LCD/ecu_chr_lcd.c: 320:     if(((void*)0) == lcd)
  4226   002CF0  5027               	movf	lcd_8bit_send_command@lcd^0,w,c
  4227   002CF2  1028               	iorwf	(lcd_8bit_send_command@lcd+1)^0,w,c
  4228   002CF4  A4D8               	btfss	status,2,c
  4229   002CF6  EF7F  F016         	goto	u4081
  4230   002CFA  EF81  F016         	goto	u4080
  4231   002CFE                     u4081:
  4232   002CFE  EF85  F016         	goto	l5518
  4233   002D02                     u4080:
  4234   002D02                     
  4235                           ;ECU_Layer/Chr_LCD/ecu_chr_lcd.c: 321:     {;ECU_Layer/Chr_LCD/ecu_chr_lcd.c: 322:      
      +                             ret = (Std_ReturnType)0x00;
  4236   002D02  0E00               	movlw	0
  4237   002D04  6E2E               	movwf	lcd_8bit_send_command@ret^0,c
  4238                           
  4239                           ;ECU_Layer/Chr_LCD/ecu_chr_lcd.c: 323:     }
  4240   002D06  EFBC  F016         	goto	l5534
  4241   002D0A                     l5518:
  4242   002D0A  C027  F01A         	movff	lcd_8bit_send_command@lcd,gpio_pin_write_logic@_pin_config
  4243   002D0E  C028  F01B         	movff	lcd_8bit_send_command@lcd+1,gpio_pin_write_logic@_pin_config+1
  4244   002D12  0E00               	movlw	0
  4245   002D14  6E1C               	movwf	gpio_pin_write_logic@logic^0,c
  4246   002D16  EC59  F012         	call	_gpio_pin_write_logic	;wreg free
  4247   002D1A                     
  4248                           ;ECU_Layer/Chr_LCD/ecu_chr_lcd.c: 328:         for(l_pin_counter = 0; l_pin_counter < 8;
      +                           ++l_pin_counter)
  4249   002D1A  0E00               	movlw	0
  4250   002D1C  6E2F               	movwf	lcd_8bit_send_command@l_pin_counter^0,c
  4251   002D1E                     l5526:
  4252   002D1E  502F               	movf	lcd_8bit_send_command@l_pin_counter^0,w,c
  4253   002D20  2427               	addwf	lcd_8bit_send_command@lcd^0,w,c
  4254   002D22  6E2A               	movwf	??_lcd_8bit_send_command^0,c
  4255   002D24  0E00               	movlw	0
  4256   002D26  2028               	addwfc	(lcd_8bit_send_command@lcd+1)^0,w,c
  4257   002D28  6E2B               	movwf	(??_lcd_8bit_send_command+1)^0,c
  4258   002D2A  0E02               	movlw	2
  4259   002D2C  242A               	addwf	??_lcd_8bit_send_command^0,w,c
  4260   002D2E  6E1A               	movwf	gpio_pin_write_logic@_pin_config^0,c
  4261   002D30  0E00               	movlw	0
  4262   002D32  202B               	addwfc	(??_lcd_8bit_send_command+1)^0,w,c
  4263   002D34  6E1B               	movwf	(gpio_pin_write_logic@_pin_config+1)^0,c
  4264   002D36  C02F  F02C         	movff	lcd_8bit_send_command@l_pin_counter,??_lcd_8bit_send_command+2
  4265   002D3A  C029  F02D         	movff	lcd_8bit_send_command@command,??_lcd_8bit_send_command+3
  4266   002D3E  2A2C               	incf	(??_lcd_8bit_send_command+2)^0,f,c
  4267   002D40  EFA4  F016         	goto	u4094
  4268   002D44                     u4095:
  4269   002D44  90D8               	bcf	status,0,c
  4270   002D46  322D               	rrcf	(??_lcd_8bit_send_command+3)^0,f,c
  4271   002D48                     u4094:
  4272   002D48  2E2C               	decfsz	(??_lcd_8bit_send_command+2)^0,f,c
  4273   002D4A  EFA2  F016         	goto	u4095
  4274   002D4E  502D               	movf	(??_lcd_8bit_send_command+3)^0,w,c
  4275   002D50  0B01               	andlw	1
  4276   002D52  6E1C               	movwf	gpio_pin_write_logic@logic^0,c
  4277   002D54  EC59  F012         	call	_gpio_pin_write_logic	;wreg free
  4278   002D58                     
  4279                           ;ECU_Layer/Chr_LCD/ecu_chr_lcd.c: 331:         }
  4280   002D58  2A2F               	incf	lcd_8bit_send_command@l_pin_counter^0,f,c
  4281   002D5A  0E07               	movlw	7
  4282   002D5C  642F               	cpfsgt	lcd_8bit_send_command@l_pin_counter^0,c
  4283   002D5E  EFB3  F016         	goto	u4101
  4284   002D62  EFB5  F016         	goto	u4100
  4285   002D66                     u4101:
  4286   002D66  EF8F  F016         	goto	l5526
  4287   002D6A                     u4100:
  4288   002D6A                     
  4289                           ;ECU_Layer/Chr_LCD/ecu_chr_lcd.c: 332:         ret = lcd_8bit_send_enable_signal(lcd);
  4290   002D6A  C027  F024         	movff	lcd_8bit_send_command@lcd,lcd_8bit_send_enable_signal@lcd
  4291   002D6E  C028  F025         	movff	lcd_8bit_send_command@lcd+1,lcd_8bit_send_enable_signal@lcd+1
  4292   002D72  EC03  F019         	call	_lcd_8bit_send_enable_signal	;wreg free
  4293   002D76  6E2E               	movwf	lcd_8bit_send_command@ret^0,c
  4294   002D78                     l5534:
  4295                           
  4296                           ;ECU_Layer/Chr_LCD/ecu_chr_lcd.c: 334:     return ret;
  4297   002D78  502E               	movf	lcd_8bit_send_command@ret^0,w,c
  4298   002D7A  0012               	return		;funcret
  4299   002D7C                     __end_of_lcd_8bit_send_command:
  4300                           	callstack 0
  4301                           
  4302 ;; *************** function _lcd_8bit_send_enable_signal *****************
  4303 ;; Defined at:
  4304 ;;		line 590 in file "ECU_Layer/Chr_LCD/ecu_chr_lcd.c"
  4305 ;; Parameters:    Size  Location     Type
  4306 ;;  lcd             2   35[COMRAM] PTR const struct .
  4307 ;;		 -> lcd_2(10), 
  4308 ;; Auto vars:     Size  Location     Type
  4309 ;;  ret             1   37[COMRAM] unsigned char 
  4310 ;; Return value:  Size  Location     Type
  4311 ;;                  1    wreg      unsigned char 
  4312 ;; Registers used:
  4313 ;;		wreg, fsr2l, fsr2h, status,2, status,0, prodl, prodh, cstack
  4314 ;; Tracked objects:
  4315 ;;		On entry : 0/0
  4316 ;;		On exit  : 0/0
  4317 ;;		Unchanged: 0/0
  4318 ;; Data sizes:     COMRAM   BANK0   BANK1   BANK2   BANK3   BANK4   BANK5   BANK6   BANK7   BANK8   BANK9  BANK10  BANK1
      +1  BANK12  BANK13  BANK14  BANK15
  4319 ;;      Params:         2       0       0       0       0       0       0       0       0       0       0       0       
      +0       0       0       0       0
  4320 ;;      Locals:         1       0       0       0       0       0       0       0       0       0       0       0       
      +0       0       0       0       0
  4321 ;;      Temps:          0       0       0       0       0       0       0       0       0       0       0       0       
      +0       0       0       0       0
  4322 ;;      Totals:         3       0       0       0       0       0       0       0       0       0       0       0       
      +0       0       0       0       0
  4323 ;;Total ram usage:        3 bytes
  4324 ;; Hardware stack levels used: 1
  4325 ;; Hardware stack levels required when called: 6
  4326 ;; This function calls:
  4327 ;;		_gpio_pin_write_logic
  4328 ;; This function is called by:
  4329 ;;		_lcd_8bit_send_command
  4330 ;;		_lcd_8bit_send_char_data
  4331 ;; This function uses a non-reentrant model
  4332 ;;
  4333                           
  4334                           	psect	text15
  4335   003206                     __ptext15:
  4336                           	callstack 0
  4337   003206                     _lcd_8bit_send_enable_signal:
  4338                           	callstack 20
  4339   003206  0E01               	movlw	1
  4340   003208  2424               	addwf	lcd_8bit_send_enable_signal@lcd^0,w,c
  4341   00320A  6E1A               	movwf	gpio_pin_write_logic@_pin_config^0,c
  4342   00320C  0E00               	movlw	0
  4343   00320E  2025               	addwfc	(lcd_8bit_send_enable_signal@lcd+1)^0,w,c
  4344   003210  6E1B               	movwf	(gpio_pin_write_logic@_pin_config+1)^0,c
  4345   003212  0E01               	movlw	1
  4346   003214  6E1C               	movwf	gpio_pin_write_logic@logic^0,c
  4347   003216  EC59  F012         	call	_gpio_pin_write_logic	;wreg free
  4348   00321A                     
  4349                           ;ECU_Layer/Chr_LCD/ecu_chr_lcd.c: 594:     _delay((unsigned long)((5)*(8000000UL/4000000
      +                          .0)));
  4350   00321A  0E03               	movlw	3
  4351   00321C                     u8127:
  4352   00321C  2EE8               	decfsz	wreg,f,c
  4353   00321E  D7FE               	bra	u8127
  4354   003220  F000               	nop	
  4355   003222                     
  4356                           ;ECU_Layer/Chr_LCD/ecu_chr_lcd.c: 595:     ret = gpio_pin_write_logic(&(lcd->lcd_en), GP
      +                          IO_LOW);
  4357   003222  0E01               	movlw	1
  4358   003224  2424               	addwf	lcd_8bit_send_enable_signal@lcd^0,w,c
  4359   003226  6E1A               	movwf	gpio_pin_write_logic@_pin_config^0,c
  4360   003228  0E00               	movlw	0
  4361   00322A  2025               	addwfc	(lcd_8bit_send_enable_signal@lcd+1)^0,w,c
  4362   00322C  6E1B               	movwf	(gpio_pin_write_logic@_pin_config+1)^0,c
  4363   00322E  0E00               	movlw	0
  4364   003230  6E1C               	movwf	gpio_pin_write_logic@logic^0,c
  4365   003232  EC59  F012         	call	_gpio_pin_write_logic	;wreg free
  4366   003236  6E26               	movwf	lcd_8bit_send_enable_signal@ret^0,c
  4367   003238                     
  4368                           ;ECU_Layer/Chr_LCD/ecu_chr_lcd.c: 596:     return ret;
  4369   003238  5026               	movf	lcd_8bit_send_enable_signal@ret^0,w,c
  4370   00323A  0012               	return		;funcret
  4371   00323C                     __end_of_lcd_8bit_send_enable_signal:
  4372                           	callstack 0
  4373                           
  4374 ;; *************** function _lcd_4bit_intialize *****************
  4375 ;; Defined at:
  4376 ;;		line 73 in file "ECU_Layer/Chr_LCD/ecu_chr_lcd.c"
  4377 ;; Parameters:    Size  Location     Type
  4378 ;;  lcd             2   43[COMRAM] PTR const struct .
  4379 ;;		 -> lcd_1(6), 
  4380 ;; Auto vars:     Size  Location     Type
  4381 ;;  ret             1   48[COMRAM] unsigned char 
  4382 ;;  l_data_pins_    1   47[COMRAM] unsigned char 
  4383 ;; Return value:  Size  Location     Type
  4384 ;;                  1    wreg      unsigned char 
  4385 ;; Registers used:
  4386 ;;		wreg, fsr2l, fsr2h, status,2, status,0, prodl, prodh, cstack
  4387 ;; Tracked objects:
  4388 ;;		On entry : 0/0
  4389 ;;		On exit  : 0/0
  4390 ;;		Unchanged: 0/0
  4391 ;; Data sizes:     COMRAM   BANK0   BANK1   BANK2   BANK3   BANK4   BANK5   BANK6   BANK7   BANK8   BANK9  BANK10  BANK1
      +1  BANK12  BANK13  BANK14  BANK15
  4392 ;;      Params:         2       0       0       0       0       0       0       0       0       0       0       0       
      +0       0       0       0       0
  4393 ;;      Locals:         2       0       0       0       0       0       0       0       0       0       0       0       
      +0       0       0       0       0
  4394 ;;      Temps:          2       0       0       0       0       0       0       0       0       0       0       0       
      +0       0       0       0       0
  4395 ;;      Totals:         6       0       0       0       0       0       0       0       0       0       0       0       
      +0       0       0       0       0
  4396 ;;Total ram usage:        6 bytes
  4397 ;; Hardware stack levels used: 1
  4398 ;; Hardware stack levels required when called: 8
  4399 ;; This function calls:
  4400 ;;		_gpio_pin_intialize
  4401 ;;		_lcd_4bit_send_command
  4402 ;; This function is called by:
  4403 ;;		_ecu_layer_intialize
  4404 ;; This function uses a non-reentrant model
  4405 ;;
  4406                           
  4407                           	psect	text16
  4408   002706                     __ptext16:
  4409                           	callstack 0
  4410   002706                     _lcd_4bit_intialize:
  4411                           	callstack 20
  4412   002706                     
  4413                           ;ECU_Layer/Chr_LCD/ecu_chr_lcd.c: 76:     uint8 l_data_pins_counter = 0;
  4414   002706  0E00               	movlw	0
  4415   002708  6E30               	movwf	lcd_4bit_intialize@l_data_pins_counter^0,c
  4416   00270A                     
  4417                           ;ECU_Layer/Chr_LCD/ecu_chr_lcd.c: 77:     if(((void*)0) == lcd)
  4418   00270A  502C               	movf	lcd_4bit_intialize@lcd^0,w,c
  4419   00270C  102D               	iorwf	(lcd_4bit_intialize@lcd+1)^0,w,c
  4420   00270E  A4D8               	btfss	status,2,c
  4421   002710  EF8C  F013         	goto	u4951
  4422   002714  EF8E  F013         	goto	u4950
  4423   002718                     u4951:
  4424   002718  EF92  F013         	goto	l6002
  4425   00271C                     u4950:
  4426   00271C                     
  4427                           ;ECU_Layer/Chr_LCD/ecu_chr_lcd.c: 78:     {;ECU_Layer/Chr_LCD/ecu_chr_lcd.c: 79:        
      +                           ret = (Std_ReturnType)0x00;
  4428   00271C  0E00               	movlw	0
  4429   00271E  6E31               	movwf	lcd_4bit_intialize@ret^0,c
  4430                           
  4431                           ;ECU_Layer/Chr_LCD/ecu_chr_lcd.c: 80:     }
  4432   002720  EF15  F014         	goto	l6038
  4433   002724                     l6002:
  4434                           
  4435                           ;ECU_Layer/Chr_LCD/ecu_chr_lcd.c: 82:     {;ECU_Layer/Chr_LCD/ecu_chr_lcd.c: 83:        
      +                           ret = gpio_pin_intialize(&(lcd->lcd_rs));
  4436   002724  C02C  F024         	movff	lcd_4bit_intialize@lcd,gpio_pin_intialize@_pin_config
  4437   002728  C02D  F025         	movff	lcd_4bit_intialize@lcd+1,gpio_pin_intialize@_pin_config+1
  4438   00272C  ECEB  F017         	call	_gpio_pin_intialize	;wreg free
  4439   002730  6E31               	movwf	lcd_4bit_intialize@ret^0,c
  4440                           
  4441                           ;ECU_Layer/Chr_LCD/ecu_chr_lcd.c: 84:         ret = gpio_pin_intialize(&(lcd->lcd_en));
  4442   002732  0E01               	movlw	1
  4443   002734  242C               	addwf	lcd_4bit_intialize@lcd^0,w,c
  4444   002736  6E24               	movwf	gpio_pin_intialize@_pin_config^0,c
  4445   002738  0E00               	movlw	0
  4446   00273A  202D               	addwfc	(lcd_4bit_intialize@lcd+1)^0,w,c
  4447   00273C  6E25               	movwf	(gpio_pin_intialize@_pin_config+1)^0,c
  4448   00273E  ECEB  F017         	call	_gpio_pin_intialize	;wreg free
  4449   002742  6E31               	movwf	lcd_4bit_intialize@ret^0,c
  4450   002744                     
  4451                           ;ECU_Layer/Chr_LCD/ecu_chr_lcd.c: 85:         for(l_data_pins_counter = 0; l_data_pins_c
      +                          ounter < 4; l_data_pins_counter++)
  4452   002744  0E00               	movlw	0
  4453   002746  6E30               	movwf	lcd_4bit_intialize@l_data_pins_counter^0,c
  4454   002748                     l6010:
  4455   002748  5030               	movf	lcd_4bit_intialize@l_data_pins_counter^0,w,c
  4456   00274A  242C               	addwf	lcd_4bit_intialize@lcd^0,w,c
  4457   00274C  6E2E               	movwf	??_lcd_4bit_intialize^0,c
  4458   00274E  0E00               	movlw	0
  4459   002750  202D               	addwfc	(lcd_4bit_intialize@lcd+1)^0,w,c
  4460   002752  6E2F               	movwf	(??_lcd_4bit_intialize+1)^0,c
  4461   002754  0E02               	movlw	2
  4462   002756  242E               	addwf	??_lcd_4bit_intialize^0,w,c
  4463   002758  6E24               	movwf	gpio_pin_intialize@_pin_config^0,c
  4464   00275A  0E00               	movlw	0
  4465   00275C  202F               	addwfc	(??_lcd_4bit_intialize+1)^0,w,c
  4466   00275E  6E25               	movwf	(gpio_pin_intialize@_pin_config+1)^0,c
  4467   002760  ECEB  F017         	call	_gpio_pin_intialize	;wreg free
  4468   002764                     
  4469                           ;ECU_Layer/Chr_LCD/ecu_chr_lcd.c: 88:         }
  4470   002764  2A30               	incf	lcd_4bit_intialize@l_data_pins_counter^0,f,c
  4471   002766  0E03               	movlw	3
  4472   002768  6430               	cpfsgt	lcd_4bit_intialize@l_data_pins_counter^0,c
  4473   00276A  EFB9  F013         	goto	u4961
  4474   00276E  EFBB  F013         	goto	u4960
  4475   002772                     u4961:
  4476   002772  EFA4  F013         	goto	l6010
  4477   002776                     u4960:
  4478   002776                     
  4479                           ;ECU_Layer/Chr_LCD/ecu_chr_lcd.c: 89:         _delay((unsigned long)((20)*(8000000UL/400
      +                          0.0)));
  4480   002776  0E34               	movlw	52
  4481   002778  6E2E               	movwf	??_lcd_4bit_intialize^0,c
  4482   00277A  0EF2               	movlw	242
  4483   00277C                     u8137:
  4484   00277C  2EE8               	decfsz	wreg,f,c
  4485   00277E  D7FE               	bra	u8137
  4486   002780  2E2E               	decfsz	??_lcd_4bit_intialize^0,f,c
  4487   002782  D7FC               	bra	u8137
  4488   002784  C02C  F028         	movff	lcd_4bit_intialize@lcd,lcd_4bit_send_command@lcd
  4489   002788  C02D  F029         	movff	lcd_4bit_intialize@lcd+1,lcd_4bit_send_command@lcd+1
  4490   00278C  0E38               	movlw	56
  4491   00278E  6E2A               	movwf	lcd_4bit_send_command@command^0,c
  4492   002790  ECB2  F017         	call	_lcd_4bit_send_command	;wreg free
  4493   002794                     
  4494                           ;ECU_Layer/Chr_LCD/ecu_chr_lcd.c: 91:         _delay((unsigned long)((5)*(8000000UL/4000
      +                          .0)));
  4495   002794  0E0D               	movlw	13
  4496   002796  6E2E               	movwf	??_lcd_4bit_intialize^0,c
  4497   002798  0EFC               	movlw	252
  4498   00279A                     u8147:
  4499   00279A  2EE8               	decfsz	wreg,f,c
  4500   00279C  D7FE               	bra	u8147
  4501   00279E  2E2E               	decfsz	??_lcd_4bit_intialize^0,f,c
  4502   0027A0  D7FC               	bra	u8147
  4503   0027A2  C02C  F028         	movff	lcd_4bit_intialize@lcd,lcd_4bit_send_command@lcd
  4504   0027A6  C02D  F029         	movff	lcd_4bit_intialize@lcd+1,lcd_4bit_send_command@lcd+1
  4505   0027AA  0E38               	movlw	56
  4506   0027AC  6E2A               	movwf	lcd_4bit_send_command@command^0,c
  4507   0027AE  ECB2  F017         	call	_lcd_4bit_send_command	;wreg free
  4508   0027B2                     
  4509                           ;ECU_Layer/Chr_LCD/ecu_chr_lcd.c: 93:         _delay((unsigned long)((150)*(8000000UL/40
      +                          00000.0)));
  4510   0027B2  0E64               	movlw	100
  4511   0027B4                     u8157:
  4512   0027B4  2EE8               	decfsz	wreg,f,c
  4513   0027B6  D7FE               	bra	u8157
  4514   0027B8  C02C  F028         	movff	lcd_4bit_intialize@lcd,lcd_4bit_send_command@lcd
  4515   0027BC  C02D  F029         	movff	lcd_4bit_intialize@lcd+1,lcd_4bit_send_command@lcd+1
  4516   0027C0  0E38               	movlw	56
  4517   0027C2  6E2A               	movwf	lcd_4bit_send_command@command^0,c
  4518   0027C4  ECB2  F017         	call	_lcd_4bit_send_command	;wreg free
  4519   0027C8  C02C  F028         	movff	lcd_4bit_intialize@lcd,lcd_4bit_send_command@lcd
  4520   0027CC  C02D  F029         	movff	lcd_4bit_intialize@lcd+1,lcd_4bit_send_command@lcd+1
  4521   0027D0  0E01               	movlw	1
  4522   0027D2  6E2A               	movwf	lcd_4bit_send_command@command^0,c
  4523   0027D4  ECB2  F017         	call	_lcd_4bit_send_command	;wreg free
  4524   0027D8  C02C  F028         	movff	lcd_4bit_intialize@lcd,lcd_4bit_send_command@lcd
  4525   0027DC  C02D  F029         	movff	lcd_4bit_intialize@lcd+1,lcd_4bit_send_command@lcd+1
  4526   0027E0  0E02               	movlw	2
  4527   0027E2  6E2A               	movwf	lcd_4bit_send_command@command^0,c
  4528   0027E4  ECB2  F017         	call	_lcd_4bit_send_command	;wreg free
  4529   0027E8  C02C  F028         	movff	lcd_4bit_intialize@lcd,lcd_4bit_send_command@lcd
  4530   0027EC  C02D  F029         	movff	lcd_4bit_intialize@lcd+1,lcd_4bit_send_command@lcd+1
  4531   0027F0  0E06               	movlw	6
  4532   0027F2  6E2A               	movwf	lcd_4bit_send_command@command^0,c
  4533   0027F4  ECB2  F017         	call	_lcd_4bit_send_command	;wreg free
  4534   0027F8  C02C  F028         	movff	lcd_4bit_intialize@lcd,lcd_4bit_send_command@lcd
  4535   0027FC  C02D  F029         	movff	lcd_4bit_intialize@lcd+1,lcd_4bit_send_command@lcd+1
  4536   002800  0E0C               	movlw	12
  4537   002802  6E2A               	movwf	lcd_4bit_send_command@command^0,c
  4538   002804  ECB2  F017         	call	_lcd_4bit_send_command	;wreg free
  4539   002808  C02C  F028         	movff	lcd_4bit_intialize@lcd,lcd_4bit_send_command@lcd
  4540   00280C  C02D  F029         	movff	lcd_4bit_intialize@lcd+1,lcd_4bit_send_command@lcd+1
  4541   002810  0E28               	movlw	40
  4542   002812  6E2A               	movwf	lcd_4bit_send_command@command^0,c
  4543   002814  ECB2  F017         	call	_lcd_4bit_send_command	;wreg free
  4544   002818                     
  4545                           ;ECU_Layer/Chr_LCD/ecu_chr_lcd.c: 101:         ret = lcd_4bit_send_command(lcd, 0x80);
  4546   002818  C02C  F028         	movff	lcd_4bit_intialize@lcd,lcd_4bit_send_command@lcd
  4547   00281C  C02D  F029         	movff	lcd_4bit_intialize@lcd+1,lcd_4bit_send_command@lcd+1
  4548   002820  0E80               	movlw	128
  4549   002822  6E2A               	movwf	lcd_4bit_send_command@command^0,c
  4550   002824  ECB2  F017         	call	_lcd_4bit_send_command	;wreg free
  4551   002828  6E31               	movwf	lcd_4bit_intialize@ret^0,c
  4552   00282A                     l6038:
  4553                           
  4554                           ;ECU_Layer/Chr_LCD/ecu_chr_lcd.c: 103:     return ret;
  4555   00282A  5031               	movf	lcd_4bit_intialize@ret^0,w,c
  4556   00282C  0012               	return		;funcret
  4557   00282E                     __end_of_lcd_4bit_intialize:
  4558                           	callstack 0
  4559                           
  4560 ;; *************** function _lcd_4bit_send_command *****************
  4561 ;; Defined at:
  4562 ;;		line 114 in file "ECU_Layer/Chr_LCD/ecu_chr_lcd.c"
  4563 ;; Parameters:    Size  Location     Type
  4564 ;;  lcd             2   39[COMRAM] PTR const struct .
  4565 ;;		 -> lcd_1(6), 
  4566 ;;  command         1   41[COMRAM] unsigned char 
  4567 ;; Auto vars:     Size  Location     Type
  4568 ;;  ret             1   42[COMRAM] unsigned char 
  4569 ;; Return value:  Size  Location     Type
  4570 ;;                  1    wreg      unsigned char 
  4571 ;; Registers used:
  4572 ;;		wreg, fsr2l, fsr2h, status,2, status,0, prodl, prodh, cstack
  4573 ;; Tracked objects:
  4574 ;;		On entry : 0/0
  4575 ;;		On exit  : 0/0
  4576 ;;		Unchanged: 0/0
  4577 ;; Data sizes:     COMRAM   BANK0   BANK1   BANK2   BANK3   BANK4   BANK5   BANK6   BANK7   BANK8   BANK9  BANK10  BANK1
      +1  BANK12  BANK13  BANK14  BANK15
  4578 ;;      Params:         3       0       0       0       0       0       0       0       0       0       0       0       
      +0       0       0       0       0
  4579 ;;      Locals:         1       0       0       0       0       0       0       0       0       0       0       0       
      +0       0       0       0       0
  4580 ;;      Temps:          0       0       0       0       0       0       0       0       0       0       0       0       
      +0       0       0       0       0
  4581 ;;      Totals:         4       0       0       0       0       0       0       0       0       0       0       0       
      +0       0       0       0       0
  4582 ;;Total ram usage:        4 bytes
  4583 ;; Hardware stack levels used: 1
  4584 ;; Hardware stack levels required when called: 7
  4585 ;; This function calls:
  4586 ;;		_gpio_pin_write_logic
  4587 ;;		_lcd_4bit_send_enable_signal
  4588 ;;		_lcd_send_4bits
  4589 ;; This function is called by:
  4590 ;;		_lcd_4bit_intialize
  4591 ;;		_lcd_4bit_send_custom_char
  4592 ;;		_lcd_4bit_set_cursor
  4593 ;; This function uses a non-reentrant model
  4594 ;;
  4595                           
  4596                           	psect	text17
  4597   002F64                     __ptext17:
  4598                           	callstack 0
  4599   002F64                     _lcd_4bit_send_command:
  4600                           	callstack 20
  4601   002F64                     
  4602                           ;ECU_Layer/Chr_LCD/ecu_chr_lcd.c: 117:     if(((void*)0) == lcd)
  4603   002F64  5028               	movf	lcd_4bit_send_command@lcd^0,w,c
  4604   002F66  1029               	iorwf	(lcd_4bit_send_command@lcd+1)^0,w,c
  4605   002F68  A4D8               	btfss	status,2,c
  4606   002F6A  EFB9  F017         	goto	u4071
  4607   002F6E  EFBB  F017         	goto	u4070
  4608   002F72                     u4071:
  4609   002F72  EFBF  F017         	goto	l5506
  4610   002F76                     u4070:
  4611   002F76                     
  4612                           ;ECU_Layer/Chr_LCD/ecu_chr_lcd.c: 118:     {;ECU_Layer/Chr_LCD/ecu_chr_lcd.c: 119:      
      +                             ret = (Std_ReturnType)0x00;
  4613   002F76  0E00               	movlw	0
  4614   002F78  6E2B               	movwf	lcd_4bit_send_command@ret^0,c
  4615                           
  4616                           ;ECU_Layer/Chr_LCD/ecu_chr_lcd.c: 120:     }
  4617   002F7A  EFE9  F017         	goto	l5508
  4618   002F7E                     l5506:
  4619                           
  4620                           ;ECU_Layer/Chr_LCD/ecu_chr_lcd.c: 122:     {;ECU_Layer/Chr_LCD/ecu_chr_lcd.c: 123:      
      +                             ret = gpio_pin_write_logic(&(lcd->lcd_rs), GPIO_LOW);
  4621   002F7E  C028  F01A         	movff	lcd_4bit_send_command@lcd,gpio_pin_write_logic@_pin_config
  4622   002F82  C029  F01B         	movff	lcd_4bit_send_command@lcd+1,gpio_pin_write_logic@_pin_config+1
  4623   002F86  0E00               	movlw	0
  4624   002F88  6E1C               	movwf	gpio_pin_write_logic@logic^0,c
  4625   002F8A  EC59  F012         	call	_gpio_pin_write_logic	;wreg free
  4626   002F8E  6E2B               	movwf	lcd_4bit_send_command@ret^0,c
  4627                           
  4628                           ;ECU_Layer/Chr_LCD/ecu_chr_lcd.c: 124:         ret = lcd_send_4bits(lcd, command >> 4);
  4629   002F90  C028  F024         	movff	lcd_4bit_send_command@lcd,lcd_send_4bits@lcd
  4630   002F94  C029  F025         	movff	lcd_4bit_send_command@lcd+1,lcd_send_4bits@lcd+1
  4631   002F98  382A               	swapf	lcd_4bit_send_command@command^0,w,c
  4632   002F9A  0B0F               	andlw	15
  4633   002F9C  6E26               	movwf	lcd_send_4bits@_data_command^0,c
  4634   002F9E  EC21  F018         	call	_lcd_send_4bits	;wreg free
  4635   002FA2  6E2B               	movwf	lcd_4bit_send_command@ret^0,c
  4636                           
  4637                           ;ECU_Layer/Chr_LCD/ecu_chr_lcd.c: 125:         ret = lcd_4bit_send_enable_signal(lcd);
  4638   002FA4  C028  F024         	movff	lcd_4bit_send_command@lcd,lcd_4bit_send_enable_signal@lcd
  4639   002FA8  C029  F025         	movff	lcd_4bit_send_command@lcd+1,lcd_4bit_send_enable_signal@lcd+1
  4640   002FAC  EC1E  F019         	call	_lcd_4bit_send_enable_signal	;wreg free
  4641   002FB0  6E2B               	movwf	lcd_4bit_send_command@ret^0,c
  4642                           
  4643                           ;ECU_Layer/Chr_LCD/ecu_chr_lcd.c: 126:         ret = lcd_send_4bits(lcd, command);
  4644   002FB2  C028  F024         	movff	lcd_4bit_send_command@lcd,lcd_send_4bits@lcd
  4645   002FB6  C029  F025         	movff	lcd_4bit_send_command@lcd+1,lcd_send_4bits@lcd+1
  4646   002FBA  C02A  F026         	movff	lcd_4bit_send_command@command,lcd_send_4bits@_data_command
  4647   002FBE  EC21  F018         	call	_lcd_send_4bits	;wreg free
  4648   002FC2  6E2B               	movwf	lcd_4bit_send_command@ret^0,c
  4649                           
  4650                           ;ECU_Layer/Chr_LCD/ecu_chr_lcd.c: 127:         ret = lcd_4bit_send_enable_signal(lcd);
  4651   002FC4  C028  F024         	movff	lcd_4bit_send_command@lcd,lcd_4bit_send_enable_signal@lcd
  4652   002FC8  C029  F025         	movff	lcd_4bit_send_command@lcd+1,lcd_4bit_send_enable_signal@lcd+1
  4653   002FCC  EC1E  F019         	call	_lcd_4bit_send_enable_signal	;wreg free
  4654   002FD0  6E2B               	movwf	lcd_4bit_send_command@ret^0,c
  4655   002FD2                     l5508:
  4656                           
  4657                           ;ECU_Layer/Chr_LCD/ecu_chr_lcd.c: 129:     return ret;
  4658   002FD2  502B               	movf	lcd_4bit_send_command@ret^0,w,c
  4659   002FD4  0012               	return		;funcret
  4660   002FD6                     __end_of_lcd_4bit_send_command:
  4661                           	callstack 0
  4662                           
  4663 ;; *************** function _lcd_send_4bits *****************
  4664 ;; Defined at:
  4665 ;;		line 557 in file "ECU_Layer/Chr_LCD/ecu_chr_lcd.c"
  4666 ;; Parameters:    Size  Location     Type
  4667 ;;  lcd             2   35[COMRAM] PTR const struct .
  4668 ;;		 -> lcd_1(6), 
  4669 ;;  _data_comman    1   37[COMRAM] unsigned char 
  4670 ;; Auto vars:     Size  Location     Type
  4671 ;;  ret             1   38[COMRAM] unsigned char 
  4672 ;; Return value:  Size  Location     Type
  4673 ;;                  1    wreg      unsigned char 
  4674 ;; Registers used:
  4675 ;;		wreg, fsr2l, fsr2h, status,2, status,0, prodl, prodh, cstack
  4676 ;; Tracked objects:
  4677 ;;		On entry : 0/0
  4678 ;;		On exit  : 0/0
  4679 ;;		Unchanged: 0/0
  4680 ;; Data sizes:     COMRAM   BANK0   BANK1   BANK2   BANK3   BANK4   BANK5   BANK6   BANK7   BANK8   BANK9  BANK10  BANK1
      +1  BANK12  BANK13  BANK14  BANK15
  4681 ;;      Params:         3       0       0       0       0       0       0       0       0       0       0       0       
      +0       0       0       0       0
  4682 ;;      Locals:         1       0       0       0       0       0       0       0       0       0       0       0       
      +0       0       0       0       0
  4683 ;;      Temps:          0       0       0       0       0       0       0       0       0       0       0       0       
      +0       0       0       0       0
  4684 ;;      Totals:         4       0       0       0       0       0       0       0       0       0       0       0       
      +0       0       0       0       0
  4685 ;;Total ram usage:        4 bytes
  4686 ;; Hardware stack levels used: 1
  4687 ;; Hardware stack levels required when called: 6
  4688 ;; This function calls:
  4689 ;;		_gpio_pin_write_logic
  4690 ;; This function is called by:
  4691 ;;		_lcd_4bit_send_command
  4692 ;;		_lcd_4bit_send_char_data
  4693 ;; This function uses a non-reentrant model
  4694 ;;
  4695                           
  4696                           	psect	text18
  4697   003042                     __ptext18:
  4698                           	callstack 0
  4699   003042                     _lcd_send_4bits:
  4700                           	callstack 20
  4701   003042  0E02               	movlw	2
  4702   003044  2424               	addwf	lcd_send_4bits@lcd^0,w,c
  4703   003046  6E1A               	movwf	gpio_pin_write_logic@_pin_config^0,c
  4704   003048  0E00               	movlw	0
  4705   00304A  2025               	addwfc	(lcd_send_4bits@lcd+1)^0,w,c
  4706   00304C  6E1B               	movwf	(gpio_pin_write_logic@_pin_config+1)^0,c
  4707   00304E  5026               	movf	lcd_send_4bits@_data_command^0,w,c
  4708   003050  0B01               	andlw	1
  4709   003052  6E1C               	movwf	gpio_pin_write_logic@logic^0,c
  4710   003054  EC59  F012         	call	_gpio_pin_write_logic	;wreg free
  4711   003058  0E03               	movlw	3
  4712   00305A  2424               	addwf	lcd_send_4bits@lcd^0,w,c
  4713   00305C  6E1A               	movwf	gpio_pin_write_logic@_pin_config^0,c
  4714   00305E  0E00               	movlw	0
  4715   003060  2025               	addwfc	(lcd_send_4bits@lcd+1)^0,w,c
  4716   003062  6E1B               	movwf	(gpio_pin_write_logic@_pin_config+1)^0,c
  4717   003064  90D8               	bcf	status,0,c
  4718   003066  3026               	rrcf	lcd_send_4bits@_data_command^0,w,c
  4719   003068  0B01               	andlw	1
  4720   00306A  6E1C               	movwf	gpio_pin_write_logic@logic^0,c
  4721   00306C  EC59  F012         	call	_gpio_pin_write_logic	;wreg free
  4722   003070  0E04               	movlw	4
  4723   003072  2424               	addwf	lcd_send_4bits@lcd^0,w,c
  4724   003074  6E1A               	movwf	gpio_pin_write_logic@_pin_config^0,c
  4725   003076  0E00               	movlw	0
  4726   003078  2025               	addwfc	(lcd_send_4bits@lcd+1)^0,w,c
  4727   00307A  6E1B               	movwf	(gpio_pin_write_logic@_pin_config+1)^0,c
  4728   00307C  4026               	rrncf	lcd_send_4bits@_data_command^0,w,c
  4729   00307E  42E8               	rrncf	wreg,f,c
  4730   003080  0B3F               	andlw	63
  4731   003082  0B01               	andlw	1
  4732   003084  6E1C               	movwf	gpio_pin_write_logic@logic^0,c
  4733   003086  EC59  F012         	call	_gpio_pin_write_logic	;wreg free
  4734   00308A                     
  4735                           ;ECU_Layer/Chr_LCD/ecu_chr_lcd.c: 563:     ret = gpio_pin_write_logic(&(lcd->lcd_data[3]
      +                          ), (_data_command >> 3) & (uint8)0x01);
  4736   00308A  0E05               	movlw	5
  4737   00308C  2424               	addwf	lcd_send_4bits@lcd^0,w,c
  4738   00308E  6E1A               	movwf	gpio_pin_write_logic@_pin_config^0,c
  4739   003090  0E00               	movlw	0
  4740   003092  2025               	addwfc	(lcd_send_4bits@lcd+1)^0,w,c
  4741   003094  6E1B               	movwf	(gpio_pin_write_logic@_pin_config+1)^0,c
  4742   003096  3826               	swapf	lcd_send_4bits@_data_command^0,w,c
  4743   003098  46E8               	rlncf	wreg,f,c
  4744   00309A  0B1F               	andlw	31
  4745   00309C  0B01               	andlw	1
  4746   00309E  6E1C               	movwf	gpio_pin_write_logic@logic^0,c
  4747   0030A0  EC59  F012         	call	_gpio_pin_write_logic	;wreg free
  4748   0030A4  6E27               	movwf	lcd_send_4bits@ret^0,c
  4749                           
  4750                           ;ECU_Layer/Chr_LCD/ecu_chr_lcd.c: 564:     return ret;
  4751   0030A6  5027               	movf	lcd_send_4bits@ret^0,w,c
  4752   0030A8  0012               	return		;funcret
  4753   0030AA                     __end_of_lcd_send_4bits:
  4754                           	callstack 0
  4755                           
  4756 ;; *************** function _lcd_4bit_send_enable_signal *****************
  4757 ;; Defined at:
  4758 ;;		line 574 in file "ECU_Layer/Chr_LCD/ecu_chr_lcd.c"
  4759 ;; Parameters:    Size  Location     Type
  4760 ;;  lcd             2   35[COMRAM] PTR const struct .
  4761 ;;		 -> lcd_1(6), 
  4762 ;; Auto vars:     Size  Location     Type
  4763 ;;  ret             1   37[COMRAM] unsigned char 
  4764 ;; Return value:  Size  Location     Type
  4765 ;;                  1    wreg      unsigned char 
  4766 ;; Registers used:
  4767 ;;		wreg, fsr2l, fsr2h, status,2, status,0, prodl, prodh, cstack
  4768 ;; Tracked objects:
  4769 ;;		On entry : 0/0
  4770 ;;		On exit  : 0/0
  4771 ;;		Unchanged: 0/0
  4772 ;; Data sizes:     COMRAM   BANK0   BANK1   BANK2   BANK3   BANK4   BANK5   BANK6   BANK7   BANK8   BANK9  BANK10  BANK1
      +1  BANK12  BANK13  BANK14  BANK15
  4773 ;;      Params:         2       0       0       0       0       0       0       0       0       0       0       0       
      +0       0       0       0       0
  4774 ;;      Locals:         1       0       0       0       0       0       0       0       0       0       0       0       
      +0       0       0       0       0
  4775 ;;      Temps:          0       0       0       0       0       0       0       0       0       0       0       0       
      +0       0       0       0       0
  4776 ;;      Totals:         3       0       0       0       0       0       0       0       0       0       0       0       
      +0       0       0       0       0
  4777 ;;Total ram usage:        3 bytes
  4778 ;; Hardware stack levels used: 1
  4779 ;; Hardware stack levels required when called: 6
  4780 ;; This function calls:
  4781 ;;		_gpio_pin_write_logic
  4782 ;; This function is called by:
  4783 ;;		_lcd_4bit_send_command
  4784 ;;		_lcd_4bit_send_char_data
  4785 ;; This function uses a non-reentrant model
  4786 ;;
  4787                           
  4788                           	psect	text19
  4789   00323C                     __ptext19:
  4790                           	callstack 0
  4791   00323C                     _lcd_4bit_send_enable_signal:
  4792                           	callstack 20
  4793   00323C  0E01               	movlw	1
  4794   00323E  2424               	addwf	lcd_4bit_send_enable_signal@lcd^0,w,c
  4795   003240  6E1A               	movwf	gpio_pin_write_logic@_pin_config^0,c
  4796   003242  0E00               	movlw	0
  4797   003244  2025               	addwfc	(lcd_4bit_send_enable_signal@lcd+1)^0,w,c
  4798   003246  6E1B               	movwf	(gpio_pin_write_logic@_pin_config+1)^0,c
  4799   003248  0E01               	movlw	1
  4800   00324A  6E1C               	movwf	gpio_pin_write_logic@logic^0,c
  4801   00324C  EC59  F012         	call	_gpio_pin_write_logic	;wreg free
  4802   003250                     
  4803                           ;ECU_Layer/Chr_LCD/ecu_chr_lcd.c: 578:     _delay((unsigned long)((5)*(8000000UL/4000000
      +                          .0)));
  4804   003250  0E03               	movlw	3
  4805   003252                     u8167:
  4806   003252  2EE8               	decfsz	wreg,f,c
  4807   003254  D7FE               	bra	u8167
  4808   003256  F000               	nop	
  4809   003258                     
  4810                           ;ECU_Layer/Chr_LCD/ecu_chr_lcd.c: 579:     ret = gpio_pin_write_logic(&(lcd->lcd_en), GP
      +                          IO_LOW);
  4811   003258  0E01               	movlw	1
  4812   00325A  2424               	addwf	lcd_4bit_send_enable_signal@lcd^0,w,c
  4813   00325C  6E1A               	movwf	gpio_pin_write_logic@_pin_config^0,c
  4814   00325E  0E00               	movlw	0
  4815   003260  2025               	addwfc	(lcd_4bit_send_enable_signal@lcd+1)^0,w,c
  4816   003262  6E1B               	movwf	(gpio_pin_write_logic@_pin_config+1)^0,c
  4817   003264  0E00               	movlw	0
  4818   003266  6E1C               	movwf	gpio_pin_write_logic@logic^0,c
  4819   003268  EC59  F012         	call	_gpio_pin_write_logic	;wreg free
  4820   00326C  6E26               	movwf	lcd_4bit_send_enable_signal@ret^0,c
  4821   00326E                     
  4822                           ;ECU_Layer/Chr_LCD/ecu_chr_lcd.c: 580:     return ret;
  4823   00326E  5026               	movf	lcd_4bit_send_enable_signal@ret^0,w,c
  4824   003270  0012               	return		;funcret
  4825   003272                     __end_of_lcd_4bit_send_enable_signal:
  4826                           	callstack 0
  4827                           
  4828 ;; *************** function _gpio_pin_intialize *****************
  4829 ;; Defined at:
  4830 ;;		line 167 in file "MCAL_Layer/GPIO/hal_gpio.c"
  4831 ;; Parameters:    Size  Location     Type
  4832 ;;  _pin_config     2   35[COMRAM] PTR const struct .
  4833 ;;		 -> lcd_2.lcd_data(8), lcd_2(10), lcd_1.lcd_data(4), lcd_1(6), 
  4834 ;;		 -> relay_initialize@pin_obj(1), led_initialize@pin_obj(1), 
  4835 ;; Auto vars:     Size  Location     Type
  4836 ;;  ret             1   38[COMRAM] unsigned char 
  4837 ;; Return value:  Size  Location     Type
  4838 ;;                  1    wreg      unsigned char 
  4839 ;; Registers used:
  4840 ;;		wreg, fsr2l, fsr2h, status,2, status,0, prodl, prodh, cstack
  4841 ;; Tracked objects:
  4842 ;;		On entry : 0/0
  4843 ;;		On exit  : 0/0
  4844 ;;		Unchanged: 0/0
  4845 ;; Data sizes:     COMRAM   BANK0   BANK1   BANK2   BANK3   BANK4   BANK5   BANK6   BANK7   BANK8   BANK9  BANK10  BANK1
      +1  BANK12  BANK13  BANK14  BANK15
  4846 ;;      Params:         2       0       0       0       0       0       0       0       0       0       0       0       
      +0       0       0       0       0
  4847 ;;      Locals:         1       0       0       0       0       0       0       0       0       0       0       0       
      +0       0       0       0       0
  4848 ;;      Temps:          1       0       0       0       0       0       0       0       0       0       0       0       
      +0       0       0       0       0
  4849 ;;      Totals:         4       0       0       0       0       0       0       0       0       0       0       0       
      +0       0       0       0       0
  4850 ;;Total ram usage:        4 bytes
  4851 ;; Hardware stack levels used: 1
  4852 ;; Hardware stack levels required when called: 6
  4853 ;; This function calls:
  4854 ;;		_gpio_pin_direction_intialize
  4855 ;;		_gpio_pin_write_logic
  4856 ;; This function is called by:
  4857 ;;		_lcd_4bit_intialize
  4858 ;;		_lcd_8bit_intialize
  4859 ;;		_led_initialize
  4860 ;;		_seven_segment_initialize
  4861 ;;		_dc_motor_initialize
  4862 ;;		_keypad_initialize
  4863 ;;		_relay_initialize
  4864 ;;		_CCP_Init
  4865 ;; This function uses a non-reentrant model
  4866 ;;
  4867                           
  4868                           	psect	text20
  4869   002FD6                     __ptext20:
  4870                           	callstack 0
  4871   002FD6                     _gpio_pin_intialize:
  4872                           	callstack 23
  4873   002FD6                     
  4874                           ;MCAL_Layer/GPIO/hal_gpio.c: 170:     if(((void*)0) == _pin_config || _pin_config->pin >
      +                           8 -1)
  4875   002FD6  5024               	movf	gpio_pin_intialize@_pin_config^0,w,c
  4876   002FD8  1025               	iorwf	(gpio_pin_intialize@_pin_config+1)^0,w,c
  4877   002FDA  B4D8               	btfsc	status,2,c
  4878   002FDC  EFF2  F017         	goto	u4051
  4879   002FE0  EFF4  F017         	goto	u4050
  4880   002FE4                     u4051:
  4881   002FE4  EF05  F018         	goto	l5492
  4882   002FE8                     u4050:
  4883   002FE8  C024  FFD9         	movff	gpio_pin_intialize@_pin_config,fsr2l
  4884   002FEC  C025  FFDA         	movff	gpio_pin_intialize@_pin_config+1,fsr2h
  4885   002FF0  30DF               	rrcf	223,w,c
  4886   002FF2  32E8               	rrcf	wreg,f,c
  4887   002FF4  32E8               	rrcf	wreg,f,c
  4888   002FF6  0B07               	andlw	7
  4889   002FF8  6E26               	movwf	??_gpio_pin_intialize^0,c
  4890   002FFA  0E07               	movlw	7
  4891   002FFC  6426               	cpfsgt	??_gpio_pin_intialize^0,c
  4892   002FFE  EF03  F018         	goto	u4061
  4893   003002  EF05  F018         	goto	u4060
  4894   003006                     u4061:
  4895   003006  EF09  F018         	goto	l5494
  4896   00300A                     u4060:
  4897   00300A                     l5492:
  4898                           
  4899                           ;MCAL_Layer/GPIO/hal_gpio.c: 171:     {;MCAL_Layer/GPIO/hal_gpio.c: 172:         ret = (
      +                          Std_ReturnType)0x00;
  4900   00300A  0E00               	movlw	0
  4901   00300C  6E27               	movwf	gpio_pin_intialize@ret^0,c
  4902                           
  4903                           ;MCAL_Layer/GPIO/hal_gpio.c: 173:     }
  4904   00300E  EF1F  F018         	goto	l5496
  4905   003012                     l5494:
  4906                           
  4907                           ;MCAL_Layer/GPIO/hal_gpio.c: 175:     {;MCAL_Layer/GPIO/hal_gpio.c: 176:         ret = g
      +                          pio_pin_direction_intialize(_pin_config);
  4908   003012  C024  F01A         	movff	gpio_pin_intialize@_pin_config,gpio_pin_direction_intialize@_pin_config
  4909   003016  C025  F01B         	movff	gpio_pin_intialize@_pin_config+1,gpio_pin_direction_intialize@_pin_config+1
  4910   00301A  ECB7  F011         	call	_gpio_pin_direction_intialize	;wreg free
  4911   00301E  6E27               	movwf	gpio_pin_intialize@ret^0,c
  4912                           
  4913                           ;MCAL_Layer/GPIO/hal_gpio.c: 177:         ret = gpio_pin_write_logic(_pin_config, _pin_c
      +                          onfig->logic);
  4914   003020  C024  F01A         	movff	gpio_pin_intialize@_pin_config,gpio_pin_write_logic@_pin_config
  4915   003024  C025  F01B         	movff	gpio_pin_intialize@_pin_config+1,gpio_pin_write_logic@_pin_config+1
  4916   003028  C024  FFD9         	movff	gpio_pin_intialize@_pin_config,fsr2l
  4917   00302C  C025  FFDA         	movff	gpio_pin_intialize@_pin_config+1,fsr2h
  4918   003030  0E00               	movlw	0
  4919   003032  BEDF               	btfsc	indf2,7,c
  4920   003034  0E01               	movlw	1
  4921   003036  6E1C               	movwf	gpio_pin_write_logic@logic^0,c
  4922   003038  EC59  F012         	call	_gpio_pin_write_logic	;wreg free
  4923   00303C  6E27               	movwf	gpio_pin_intialize@ret^0,c
  4924   00303E                     l5496:
  4925                           
  4926                           ;MCAL_Layer/GPIO/hal_gpio.c: 179:     return ret;
  4927   00303E  5027               	movf	gpio_pin_intialize@ret^0,w,c
  4928   003040  0012               	return		;funcret
  4929   003042                     __end_of_gpio_pin_intialize:
  4930                           	callstack 0
  4931                           
  4932 ;; *************** function _gpio_pin_write_logic *****************
  4933 ;; Defined at:
  4934 ;;		line 88 in file "MCAL_Layer/GPIO/hal_gpio.c"
  4935 ;; Parameters:    Size  Location     Type
  4936 ;;  _pin_config     2   25[COMRAM] PTR const struct .
  4937 ;;		 -> lcd_2.lcd_data(8), lcd_2(10), lcd_1.lcd_data(4), lcd_1(6), 
  4938 ;;		 -> relay_turn_off@pin_obj(1), relay_turn_on@pin_obj(1), relay_initialize@pin_obj(1), led_turn_off@pin_obj(1), 
  4939 ;;		 -> led_turn_on@pin_obj(1), led_initialize@pin_obj(1), 
  4940 ;;  logic           1   27[COMRAM] enum E2968
  4941 ;; Auto vars:     Size  Location     Type
  4942 ;;  ret             1   34[COMRAM] unsigned char 
  4943 ;; Return value:  Size  Location     Type
  4944 ;;                  1    wreg      unsigned char 
  4945 ;; Registers used:
  4946 ;;		wreg, fsr2l, fsr2h, status,2, status,0, prodl, prodh
  4947 ;; Tracked objects:
  4948 ;;		On entry : 0/0
  4949 ;;		On exit  : 0/0
  4950 ;;		Unchanged: 0/0
  4951 ;; Data sizes:     COMRAM   BANK0   BANK1   BANK2   BANK3   BANK4   BANK5   BANK6   BANK7   BANK8   BANK9  BANK10  BANK1
      +1  BANK12  BANK13  BANK14  BANK15
  4952 ;;      Params:         3       0       0       0       0       0       0       0       0       0       0       0       
      +0       0       0       0       0
  4953 ;;      Locals:         1       0       0       0       0       0       0       0       0       0       0       0       
      +0       0       0       0       0
  4954 ;;      Temps:          6       0       0       0       0       0       0       0       0       0       0       0       
      +0       0       0       0       0
  4955 ;;      Totals:        10       0       0       0       0       0       0       0       0       0       0       0       
      +0       0       0       0       0
  4956 ;;Total ram usage:       10 bytes
  4957 ;; Hardware stack levels used: 1
  4958 ;; Hardware stack levels required when called: 5
  4959 ;; This function calls:
  4960 ;;		Nothing
  4961 ;; This function is called by:
  4962 ;;		_lcd_4bit_send_command
  4963 ;;		_lcd_8bit_send_command
  4964 ;;		_lcd_send_4bits
  4965 ;;		_lcd_4bit_send_enable_signal
  4966 ;;		_lcd_8bit_send_enable_signal
  4967 ;;		_gpio_pin_intialize
  4968 ;;		_seven_segment_write_number
  4969 ;;		_lcd_4bit_send_char_data
  4970 ;;		_lcd_8bit_send_char_data
  4971 ;;		_dc_motor_move_right
  4972 ;;		_dc_motor_move_left
  4973 ;;		_dc_motor_stop
  4974 ;;		_keypad_get_value
  4975 ;;		_relay_turn_on
  4976 ;;		_relay_turn_off
  4977 ;; This function uses a non-reentrant model
  4978 ;;
  4979                           
  4980                           	psect	text21
  4981   0024B2                     __ptext21:
  4982                           	callstack 0
  4983   0024B2                     _gpio_pin_write_logic:
  4984                           	callstack 23
  4985   0024B2                     
  4986                           ;MCAL_Layer/GPIO/hal_gpio.c: 88: Std_ReturnType gpio_pin_write_logic(const pin_config_t 
      +                          *_pin_config, logic_t logic);MCAL_Layer/GPIO/hal_gpio.c: 89: {;MCAL_Layer/GPIO/hal_gpio.
      +                          c: 90:     Std_ReturnType ret = (Std_ReturnType)0x01;
  4987   0024B2  0E01               	movlw	1
  4988   0024B4  6E23               	movwf	gpio_pin_write_logic@ret^0,c
  4989   0024B6                     
  4990                           ;MCAL_Layer/GPIO/hal_gpio.c: 91:     if(((void*)0) == _pin_config || _pin_config->pin > 
      +                          8 -1)
  4991   0024B6  501A               	movf	gpio_pin_write_logic@_pin_config^0,w,c
  4992   0024B8  101B               	iorwf	(gpio_pin_write_logic@_pin_config+1)^0,w,c
  4993   0024BA  B4D8               	btfsc	status,2,c
  4994   0024BC  EF62  F012         	goto	u3951
  4995   0024C0  EF64  F012         	goto	u3950
  4996   0024C4                     u3951:
  4997   0024C4  EF75  F012         	goto	l5408
  4998   0024C8                     u3950:
  4999   0024C8  C01A  FFD9         	movff	gpio_pin_write_logic@_pin_config,fsr2l
  5000   0024CC  C01B  FFDA         	movff	gpio_pin_write_logic@_pin_config+1,fsr2h
  5001   0024D0  30DF               	rrcf	223,w,c
  5002   0024D2  32E8               	rrcf	wreg,f,c
  5003   0024D4  32E8               	rrcf	wreg,f,c
  5004   0024D6  0B07               	andlw	7
  5005   0024D8  6E1D               	movwf	??_gpio_pin_write_logic^0,c
  5006   0024DA  0E07               	movlw	7
  5007   0024DC  641D               	cpfsgt	??_gpio_pin_write_logic^0,c
  5008   0024DE  EF73  F012         	goto	u3961
  5009   0024E2  EF75  F012         	goto	u3960
  5010   0024E6                     u3961:
  5011   0024E6  EFD8  F012         	goto	l5416
  5012   0024EA                     u3960:
  5013   0024EA                     l5408:
  5014                           
  5015                           ;MCAL_Layer/GPIO/hal_gpio.c: 92:     {;MCAL_Layer/GPIO/hal_gpio.c: 93:         ret = (St
      +                          d_ReturnType)0x00;
  5016   0024EA  0E00               	movlw	0
  5017   0024EC  6E23               	movwf	gpio_pin_write_logic@ret^0,c
  5018                           
  5019                           ;MCAL_Layer/GPIO/hal_gpio.c: 94:     }
  5020   0024EE  EFED  F012         	goto	l5418
  5021   0024F2                     l5410:
  5022                           
  5023                           ;MCAL_Layer/GPIO/hal_gpio.c: 100:                 (*lat_registers[_pin_config->port] &= 
      +                          ~((uint8)1 << _pin_config->pin));
  5024   0024F2  C01A  FFD9         	movff	gpio_pin_write_logic@_pin_config,fsr2l
  5025   0024F6  C01B  FFDA         	movff	gpio_pin_write_logic@_pin_config+1,fsr2h
  5026   0024FA  30DF               	rrcf	223,w,c
  5027   0024FC  32E8               	rrcf	wreg,f,c
  5028   0024FE  32E8               	rrcf	wreg,f,c
  5029   002500  0B07               	andlw	7
  5030   002502  6E1D               	movwf	??_gpio_pin_write_logic^0,c
  5031   002504  0E01               	movlw	1
  5032   002506  6E1E               	movwf	(??_gpio_pin_write_logic+1)^0,c
  5033   002508  2A1D               	incf	??_gpio_pin_write_logic^0,f,c
  5034   00250A  EF89  F012         	goto	u3974
  5035   00250E                     u3975:
  5036   00250E  90D8               	bcf	status,0,c
  5037   002510  361E               	rlcf	(??_gpio_pin_write_logic+1)^0,f,c
  5038   002512                     u3974:
  5039   002512  2E1D               	decfsz	??_gpio_pin_write_logic^0,f,c
  5040   002514  EF87  F012         	goto	u3975
  5041   002518  501E               	movf	(??_gpio_pin_write_logic+1)^0,w,c
  5042   00251A  0AFF               	xorlw	255
  5043   00251C  6E1F               	movwf	(??_gpio_pin_write_logic+2)^0,c
  5044   00251E  C01A  FFD9         	movff	gpio_pin_write_logic@_pin_config,fsr2l
  5045   002522  C01B  FFDA         	movff	gpio_pin_write_logic@_pin_config+1,fsr2h
  5046   002526  50DF               	movf	223,w,c
  5047   002528  0B07               	andlw	7
  5048   00252A  6E20               	movwf	(??_gpio_pin_write_logic+3)^0,c
  5049   00252C  5020               	movf	(??_gpio_pin_write_logic+3)^0,w,c
  5050   00252E  0D02               	mullw	2
  5051   002530  0EC2               	movlw	low _lat_registers
  5052   002532  24F3               	addwf	243,w,c
  5053   002534  6ED9               	movwf	fsr2l,c
  5054   002536  0E00               	movlw	high _lat_registers
  5055   002538  20F4               	addwfc	prodh,w,c
  5056   00253A  6EDA               	movwf	fsr2h,c
  5057   00253C  CFDE F021          	movff	postinc2,??_gpio_pin_write_logic+4
  5058   002540  CFDD F022          	movff	postdec2,??_gpio_pin_write_logic+5
  5059   002544  C021  FFD9         	movff	??_gpio_pin_write_logic+4,fsr2l
  5060   002548  C022  FFDA         	movff	??_gpio_pin_write_logic+5,fsr2h
  5061   00254C  501F               	movf	(??_gpio_pin_write_logic+2)^0,w,c
  5062   00254E  16DF               	andwf	indf2,f,c
  5063                           
  5064                           ;MCAL_Layer/GPIO/hal_gpio.c: 101:                 break;
  5065   002550  EFED  F012         	goto	l5418
  5066   002554                     l5412:
  5067                           
  5068                           ;MCAL_Layer/GPIO/hal_gpio.c: 103:                 (*lat_registers[_pin_config->port] |= 
      +                          ((uint8)1 << _pin_config->pin));
  5069   002554  C01A  FFD9         	movff	gpio_pin_write_logic@_pin_config,fsr2l
  5070   002558  C01B  FFDA         	movff	gpio_pin_write_logic@_pin_config+1,fsr2h
  5071   00255C  30DF               	rrcf	223,w,c
  5072   00255E  32E8               	rrcf	wreg,f,c
  5073   002560  32E8               	rrcf	wreg,f,c
  5074   002562  0B07               	andlw	7
  5075   002564  6E1D               	movwf	??_gpio_pin_write_logic^0,c
  5076   002566  0E01               	movlw	1
  5077   002568  6E1E               	movwf	(??_gpio_pin_write_logic+1)^0,c
  5078   00256A  2A1D               	incf	??_gpio_pin_write_logic^0,f,c
  5079   00256C  EFBA  F012         	goto	u3984
  5080   002570                     u3985:
  5081   002570  90D8               	bcf	status,0,c
  5082   002572  361E               	rlcf	(??_gpio_pin_write_logic+1)^0,f,c
  5083   002574                     u3984:
  5084   002574  2E1D               	decfsz	??_gpio_pin_write_logic^0,f,c
  5085   002576  EFB8  F012         	goto	u3985
  5086   00257A  C01A  FFD9         	movff	gpio_pin_write_logic@_pin_config,fsr2l
  5087   00257E  C01B  FFDA         	movff	gpio_pin_write_logic@_pin_config+1,fsr2h
  5088   002582  50DF               	movf	223,w,c
  5089   002584  0B07               	andlw	7
  5090   002586  6E1F               	movwf	(??_gpio_pin_write_logic+2)^0,c
  5091   002588  501F               	movf	(??_gpio_pin_write_logic+2)^0,w,c
  5092   00258A  0D02               	mullw	2
  5093   00258C  0EC2               	movlw	low _lat_registers
  5094   00258E  24F3               	addwf	243,w,c
  5095   002590  6ED9               	movwf	fsr2l,c
  5096   002592  0E00               	movlw	high _lat_registers
  5097   002594  20F4               	addwfc	prodh,w,c
  5098   002596  6EDA               	movwf	fsr2h,c
  5099   002598  CFDE F020          	movff	postinc2,??_gpio_pin_write_logic+3
  5100   00259C  CFDD F021          	movff	postdec2,??_gpio_pin_write_logic+4
  5101   0025A0  C020  FFD9         	movff	??_gpio_pin_write_logic+3,fsr2l
  5102   0025A4  C021  FFDA         	movff	??_gpio_pin_write_logic+4,fsr2h
  5103   0025A8  501E               	movf	(??_gpio_pin_write_logic+1)^0,w,c
  5104   0025AA  12DF               	iorwf	indf2,f,c
  5105                           
  5106                           ;MCAL_Layer/GPIO/hal_gpio.c: 104:                 break;
  5107   0025AC  EFED  F012         	goto	l5418
  5108   0025B0                     l5416:
  5109   0025B0  501C               	movf	gpio_pin_write_logic@logic^0,w,c
  5110   0025B2  6E1D               	movwf	??_gpio_pin_write_logic^0,c
  5111   0025B4  6A1E               	clrf	(??_gpio_pin_write_logic+1)^0,c
  5112                           
  5113                           ; Switch on 2 bytes has been partitioned into a top level switch of size 1, and 1 sub-sw
      +                          itches
  5114                           ; Switch size 1, requested type "simple"
  5115                           ; Number of cases is 1, Range of values is 0 to 0
  5116                           ; switch strategies available:
  5117                           ; Name         Instructions Cycles
  5118                           ; simple_byte            4     3 (average)
  5119                           ;	Chosen strategy is simple_byte
  5120   0025B6  501E               	movf	(??_gpio_pin_write_logic+1)^0,w,c
  5121   0025B8  0A00               	xorlw	0	; case 0
  5122   0025BA  B4D8               	btfsc	status,2,c
  5123   0025BC  EFE2  F012         	goto	l8580
  5124   0025C0  EF75  F012         	goto	l5408
  5125   0025C4                     l8580:
  5126                           
  5127                           ; Switch size 1, requested type "simple"
  5128                           ; Number of cases is 2, Range of values is 0 to 1
  5129                           ; switch strategies available:
  5130                           ; Name         Instructions Cycles
  5131                           ; simple_byte            7     4 (average)
  5132                           ;	Chosen strategy is simple_byte
  5133   0025C4  501D               	movf	??_gpio_pin_write_logic^0,w,c
  5134   0025C6  0A00               	xorlw	0	; case 0
  5135   0025C8  B4D8               	btfsc	status,2,c
  5136   0025CA  EF79  F012         	goto	l5410
  5137   0025CE  0A01               	xorlw	1	; case 1
  5138   0025D0  B4D8               	btfsc	status,2,c
  5139   0025D2  EFAA  F012         	goto	l5412
  5140   0025D6  EF75  F012         	goto	l5408
  5141   0025DA                     l5418:
  5142                           
  5143                           ;MCAL_Layer/GPIO/hal_gpio.c: 108:     return ret;
  5144   0025DA  5023               	movf	gpio_pin_write_logic@ret^0,w,c
  5145   0025DC  0012               	return		;funcret
  5146   0025DE                     __end_of_gpio_pin_write_logic:
  5147                           	callstack 0
  5148                           
  5149 ;; *************** function _gpio_pin_direction_intialize *****************
  5150 ;; Defined at:
  5151 ;;		line 31 in file "MCAL_Layer/GPIO/hal_gpio.c"
  5152 ;; Parameters:    Size  Location     Type
  5153 ;;  _pin_config     2   25[COMRAM] PTR const struct .
  5154 ;;		 -> lcd_2.lcd_data(8), lcd_2(10), lcd_1.lcd_data(4), lcd_1(6), 
  5155 ;;		 -> relay_initialize@pin_obj(1), led_initialize@pin_obj(1), 
  5156 ;; Auto vars:     Size  Location     Type
  5157 ;;  ret             1   33[COMRAM] unsigned char 
  5158 ;; Return value:  Size  Location     Type
  5159 ;;                  1    wreg      unsigned char 
  5160 ;; Registers used:
  5161 ;;		wreg, fsr2l, fsr2h, status,2, status,0, prodl, prodh
  5162 ;; Tracked objects:
  5163 ;;		On entry : 0/0
  5164 ;;		On exit  : 0/0
  5165 ;;		Unchanged: 0/0
  5166 ;; Data sizes:     COMRAM   BANK0   BANK1   BANK2   BANK3   BANK4   BANK5   BANK6   BANK7   BANK8   BANK9  BANK10  BANK1
      +1  BANK12  BANK13  BANK14  BANK15
  5167 ;;      Params:         2       0       0       0       0       0       0       0       0       0       0       0       
      +0       0       0       0       0
  5168 ;;      Locals:         1       0       0       0       0       0       0       0       0       0       0       0       
      +0       0       0       0       0
  5169 ;;      Temps:          6       0       0       0       0       0       0       0       0       0       0       0       
      +0       0       0       0       0
  5170 ;;      Totals:         9       0       0       0       0       0       0       0       0       0       0       0       
      +0       0       0       0       0
  5171 ;;Total ram usage:        9 bytes
  5172 ;; Hardware stack levels used: 1
  5173 ;; Hardware stack levels required when called: 5
  5174 ;; This function calls:
  5175 ;;		Nothing
  5176 ;; This function is called by:
  5177 ;;		_gpio_pin_intialize
  5178 ;;		_button_initialize
  5179 ;;		_keypad_initialize
  5180 ;;		_Interrupt_RBx_Init
  5181 ;;		_Interrupt_INTx_Pin_Init
  5182 ;; This function uses a non-reentrant model
  5183 ;;
  5184                           
  5185                           	psect	text22
  5186   00236E                     __ptext22:
  5187                           	callstack 0
  5188   00236E                     _gpio_pin_direction_intialize:
  5189                           	callstack 23
  5190   00236E                     
  5191                           ;MCAL_Layer/GPIO/hal_gpio.c: 31: Std_ReturnType gpio_pin_direction_intialize(const pin_c
      +                          onfig_t *_pin_config);MCAL_Layer/GPIO/hal_gpio.c: 32: {;MCAL_Layer/GPIO/hal_gpio.c: 33: 
      +                              Std_ReturnType ret = (Std_ReturnType)0x01;
  5192   00236E  0E01               	movlw	1
  5193   002370  6E22               	movwf	gpio_pin_direction_intialize@ret^0,c
  5194   002372                     
  5195                           ;MCAL_Layer/GPIO/hal_gpio.c: 34:     if(((void*)0) == _pin_config || _pin_config->pin > 
      +                          8 -1)
  5196   002372  501A               	movf	gpio_pin_direction_intialize@_pin_config^0,w,c
  5197   002374  101B               	iorwf	(gpio_pin_direction_intialize@_pin_config+1)^0,w,c
  5198   002376  B4D8               	btfsc	status,2,c
  5199   002378  EFC0  F011         	goto	u3991
  5200   00237C  EFC2  F011         	goto	u3990
  5201   002380                     u3991:
  5202   002380  EFD3  F011         	goto	l5432
  5203   002384                     u3990:
  5204   002384  C01A  FFD9         	movff	gpio_pin_direction_intialize@_pin_config,fsr2l
  5205   002388  C01B  FFDA         	movff	gpio_pin_direction_intialize@_pin_config+1,fsr2h
  5206   00238C  30DF               	rrcf	223,w,c
  5207   00238E  32E8               	rrcf	wreg,f,c
  5208   002390  32E8               	rrcf	wreg,f,c
  5209   002392  0B07               	andlw	7
  5210   002394  6E1C               	movwf	??_gpio_pin_direction_intialize^0,c
  5211   002396  0E07               	movlw	7
  5212   002398  641C               	cpfsgt	??_gpio_pin_direction_intialize^0,c
  5213   00239A  EFD1  F011         	goto	u4001
  5214   00239E  EFD3  F011         	goto	u4000
  5215   0023A2                     u4001:
  5216   0023A2  EF36  F012         	goto	l5440
  5217   0023A6                     u4000:
  5218   0023A6                     l5432:
  5219                           
  5220                           ;MCAL_Layer/GPIO/hal_gpio.c: 35:     {;MCAL_Layer/GPIO/hal_gpio.c: 36:         ret = (St
      +                          d_ReturnType)0x00;
  5221   0023A6  0E00               	movlw	0
  5222   0023A8  6E22               	movwf	gpio_pin_direction_intialize@ret^0,c
  5223                           
  5224                           ;MCAL_Layer/GPIO/hal_gpio.c: 37:     }
  5225   0023AA  EF57  F012         	goto	l5442
  5226   0023AE                     l5434:
  5227                           
  5228                           ;MCAL_Layer/GPIO/hal_gpio.c: 43:                 (*tris_registers[_pin_config->port] &= 
      +                          ~((uint8)1 << _pin_config->pin));
  5229   0023AE  C01A  FFD9         	movff	gpio_pin_direction_intialize@_pin_config,fsr2l
  5230   0023B2  C01B  FFDA         	movff	gpio_pin_direction_intialize@_pin_config+1,fsr2h
  5231   0023B6  30DF               	rrcf	223,w,c
  5232   0023B8  32E8               	rrcf	wreg,f,c
  5233   0023BA  32E8               	rrcf	wreg,f,c
  5234   0023BC  0B07               	andlw	7
  5235   0023BE  6E1C               	movwf	??_gpio_pin_direction_intialize^0,c
  5236   0023C0  0E01               	movlw	1
  5237   0023C2  6E1D               	movwf	(??_gpio_pin_direction_intialize+1)^0,c
  5238   0023C4  2A1C               	incf	??_gpio_pin_direction_intialize^0,f,c
  5239   0023C6  EFE7  F011         	goto	u4014
  5240   0023CA                     u4015:
  5241   0023CA  90D8               	bcf	status,0,c
  5242   0023CC  361D               	rlcf	(??_gpio_pin_direction_intialize+1)^0,f,c
  5243   0023CE                     u4014:
  5244   0023CE  2E1C               	decfsz	??_gpio_pin_direction_intialize^0,f,c
  5245   0023D0  EFE5  F011         	goto	u4015
  5246   0023D4  501D               	movf	(??_gpio_pin_direction_intialize+1)^0,w,c
  5247   0023D6  0AFF               	xorlw	255
  5248   0023D8  6E1E               	movwf	(??_gpio_pin_direction_intialize+2)^0,c
  5249   0023DA  C01A  FFD9         	movff	gpio_pin_direction_intialize@_pin_config,fsr2l
  5250   0023DE  C01B  FFDA         	movff	gpio_pin_direction_intialize@_pin_config+1,fsr2h
  5251   0023E2  50DF               	movf	223,w,c
  5252   0023E4  0B07               	andlw	7
  5253   0023E6  6E1F               	movwf	(??_gpio_pin_direction_intialize+3)^0,c
  5254   0023E8  501F               	movf	(??_gpio_pin_direction_intialize+3)^0,w,c
  5255   0023EA  0D02               	mullw	2
  5256   0023EC  0ECC               	movlw	low _tris_registers
  5257   0023EE  24F3               	addwf	243,w,c
  5258   0023F0  6ED9               	movwf	fsr2l,c
  5259   0023F2  0E00               	movlw	high _tris_registers
  5260   0023F4  20F4               	addwfc	prodh,w,c
  5261   0023F6  6EDA               	movwf	fsr2h,c
  5262   0023F8  CFDE F020          	movff	postinc2,??_gpio_pin_direction_intialize+4
  5263   0023FC  CFDD F021          	movff	postdec2,??_gpio_pin_direction_intialize+5
  5264   002400  C020  FFD9         	movff	??_gpio_pin_direction_intialize+4,fsr2l
  5265   002404  C021  FFDA         	movff	??_gpio_pin_direction_intialize+5,fsr2h
  5266   002408  501E               	movf	(??_gpio_pin_direction_intialize+2)^0,w,c
  5267   00240A  16DF               	andwf	indf2,f,c
  5268                           
  5269                           ;MCAL_Layer/GPIO/hal_gpio.c: 44:                 break;
  5270   00240C  EF57  F012         	goto	l5442
  5271   002410                     l5436:
  5272                           
  5273                           ;MCAL_Layer/GPIO/hal_gpio.c: 46:                 (*tris_registers[_pin_config->port] |= 
      +                          ((uint8)1 << _pin_config->pin));
  5274   002410  C01A  FFD9         	movff	gpio_pin_direction_intialize@_pin_config,fsr2l
  5275   002414  C01B  FFDA         	movff	gpio_pin_direction_intialize@_pin_config+1,fsr2h
  5276   002418  30DF               	rrcf	223,w,c
  5277   00241A  32E8               	rrcf	wreg,f,c
  5278   00241C  32E8               	rrcf	wreg,f,c
  5279   00241E  0B07               	andlw	7
  5280   002420  6E1C               	movwf	??_gpio_pin_direction_intialize^0,c
  5281   002422  0E01               	movlw	1
  5282   002424  6E1D               	movwf	(??_gpio_pin_direction_intialize+1)^0,c
  5283   002426  2A1C               	incf	??_gpio_pin_direction_intialize^0,f,c
  5284   002428  EF18  F012         	goto	u4024
  5285   00242C                     u4025:
  5286   00242C  90D8               	bcf	status,0,c
  5287   00242E  361D               	rlcf	(??_gpio_pin_direction_intialize+1)^0,f,c
  5288   002430                     u4024:
  5289   002430  2E1C               	decfsz	??_gpio_pin_direction_intialize^0,f,c
  5290   002432  EF16  F012         	goto	u4025
  5291   002436  C01A  FFD9         	movff	gpio_pin_direction_intialize@_pin_config,fsr2l
  5292   00243A  C01B  FFDA         	movff	gpio_pin_direction_intialize@_pin_config+1,fsr2h
  5293   00243E  50DF               	movf	223,w,c
  5294   002440  0B07               	andlw	7
  5295   002442  6E1E               	movwf	(??_gpio_pin_direction_intialize+2)^0,c
  5296   002444  501E               	movf	(??_gpio_pin_direction_intialize+2)^0,w,c
  5297   002446  0D02               	mullw	2
  5298   002448  0ECC               	movlw	low _tris_registers
  5299   00244A  24F3               	addwf	243,w,c
  5300   00244C  6ED9               	movwf	fsr2l,c
  5301   00244E  0E00               	movlw	high _tris_registers
  5302   002450  20F4               	addwfc	prodh,w,c
  5303   002452  6EDA               	movwf	fsr2h,c
  5304   002454  CFDE F01F          	movff	postinc2,??_gpio_pin_direction_intialize+3
  5305   002458  CFDD F020          	movff	postdec2,??_gpio_pin_direction_intialize+4
  5306   00245C  C01F  FFD9         	movff	??_gpio_pin_direction_intialize+3,fsr2l
  5307   002460  C020  FFDA         	movff	??_gpio_pin_direction_intialize+4,fsr2h
  5308   002464  501D               	movf	(??_gpio_pin_direction_intialize+1)^0,w,c
  5309   002466  12DF               	iorwf	indf2,f,c
  5310                           
  5311                           ;MCAL_Layer/GPIO/hal_gpio.c: 47:                 break;
  5312   002468  EF57  F012         	goto	l5442
  5313   00246C                     l5440:
  5314   00246C  C01A  FFD9         	movff	gpio_pin_direction_intialize@_pin_config,fsr2l
  5315   002470  C01B  FFDA         	movff	gpio_pin_direction_intialize@_pin_config+1,fsr2h
  5316   002474  BCDF               	btfsc	indf2,6,c
  5317   002476  EF3F  F012         	goto	u4031
  5318   00247A  EF42  F012         	goto	u4030
  5319   00247E                     u4031:
  5320   00247E  0E01               	movlw	1
  5321   002480  EF43  F012         	goto	u4040
  5322   002484                     u4030:
  5323   002484  0E00               	movlw	0
  5324   002486                     u4040:
  5325   002486  6E1C               	movwf	??_gpio_pin_direction_intialize^0,c
  5326   002488  6A1D               	clrf	(??_gpio_pin_direction_intialize+1)^0,c
  5327                           
  5328                           ; Switch on 2 bytes has been partitioned into a top level switch of size 1, and 1 sub-sw
      +                          itches
  5329                           ; Switch size 1, requested type "simple"
  5330                           ; Number of cases is 1, Range of values is 0 to 0
  5331                           ; switch strategies available:
  5332                           ; Name         Instructions Cycles
  5333                           ; simple_byte            4     3 (average)
  5334                           ;	Chosen strategy is simple_byte
  5335   00248A  501D               	movf	(??_gpio_pin_direction_intialize+1)^0,w,c
  5336   00248C  0A00               	xorlw	0	; case 0
  5337   00248E  B4D8               	btfsc	status,2,c
  5338   002490  EF4C  F012         	goto	l8582
  5339   002494  EFD3  F011         	goto	l5432
  5340   002498                     l8582:
  5341                           
  5342                           ; Switch size 1, requested type "simple"
  5343                           ; Number of cases is 2, Range of values is 0 to 1
  5344                           ; switch strategies available:
  5345                           ; Name         Instructions Cycles
  5346                           ; simple_byte            7     4 (average)
  5347                           ;	Chosen strategy is simple_byte
  5348   002498  501C               	movf	??_gpio_pin_direction_intialize^0,w,c
  5349   00249A  0A00               	xorlw	0	; case 0
  5350   00249C  B4D8               	btfsc	status,2,c
  5351   00249E  EFD7  F011         	goto	l5434
  5352   0024A2  0A01               	xorlw	1	; case 1
  5353   0024A4  B4D8               	btfsc	status,2,c
  5354   0024A6  EF08  F012         	goto	l5436
  5355   0024AA  EFD3  F011         	goto	l5432
  5356   0024AE                     l5442:
  5357                           
  5358                           ;MCAL_Layer/GPIO/hal_gpio.c: 51:     return ret;
  5359   0024AE  5022               	movf	gpio_pin_direction_intialize@ret^0,w,c
  5360   0024B0  0012               	return		;funcret
  5361   0024B2                     __end_of_gpio_pin_direction_intialize:
  5362                           	callstack 0
  5363                           
  5364 ;; *************** function _InterruptManager *****************
  5365 ;; Defined at:
  5366 ;;		line 46 in file "MCAL_Layer/Interrupt/mcal_interrupt_manager.c"
  5367 ;; Parameters:    Size  Location     Type
  5368 ;;		None
  5369 ;; Auto vars:     Size  Location     Type
  5370 ;;		None
  5371 ;; Return value:  Size  Location     Type
  5372 ;;                  1    wreg      void 
  5373 ;; Registers used:
  5374 ;;		wreg, fsr2l, fsr2h, status,2, status,0, pcl, pclath, pclatu, tosl, tblptrl, tblptrh, tblptru, prodl, prodh, cstack
  5375 ;; Tracked objects:
  5376 ;;		On entry : 0/0
  5377 ;;		On exit  : 0/0
  5378 ;;		Unchanged: 0/0
  5379 ;; Data sizes:     COMRAM   BANK0   BANK1   BANK2   BANK3   BANK4   BANK5   BANK6   BANK7   BANK8   BANK9  BANK10  BANK1
      +1  BANK12  BANK13  BANK14  BANK15
  5380 ;;      Params:         0       0       0       0       0       0       0       0       0       0       0       0       
      +0       0       0       0       0
  5381 ;;      Locals:         0       0       0       0       0       0       0       0       0       0       0       0       
      +0       0       0       0       0
  5382 ;;      Temps:         10       0       0       0       0       0       0       0       0       0       0       0       
      +0       0       0       0       0
  5383 ;;      Totals:        10       0       0       0       0       0       0       0       0       0       0       0       
      +0       0       0       0       0
  5384 ;;Total ram usage:       10 bytes
  5385 ;; Hardware stack levels used: 1
  5386 ;; Hardware stack levels required when called: 4
  5387 ;; This function calls:
  5388 ;;		_ADC_ISR
  5389 ;;		_CCP1_ISR
  5390 ;;		_CCP2_ISR
  5391 ;;		_INT0_ISR
  5392 ;;		_INT1_ISR
  5393 ;;		_INT2_ISR
  5394 ;;		_MSSP_I2C_BC_ISR
  5395 ;;		_MSSP_I2C_ISR
  5396 ;;		_RB4_ISR
  5397 ;;		_RB5_ISR
  5398 ;;		_RB6_ISR
  5399 ;;		_RB7_ISR
  5400 ;;		_TMR0_ISR
  5401 ;;		_TMR1_ISR
  5402 ;;		_TMR2_ISR
  5403 ;;		_TMR3_ISR
  5404 ;;		_USART_RX_ISR
  5405 ;;		_USART_TX_ISR
  5406 ;; This function is called by:
  5407 ;;		Interrupt level 2
  5408 ;; This function uses a non-reentrant model
  5409 ;;
  5410                           
  5411                           	psect	intcode
  5412   000008                     __pintcode:
  5413                           	callstack 0
  5414   000008                     _InterruptManager:
  5415                           	callstack 20
  5416                           
  5417                           ;incstack = 0
  5418   000008  8266               	bsf	int$flags,1,c	;set compiler interrupt flag (level 2)
  5419   00000A  EDF5  F00C         	call	int_func,f	;refresh shadow registers
  5420                           
  5421                           	psect	intcode_body
  5422   0019EA                     __pintcode_body:
  5423                           	callstack 20
  5424   0019EA                     int_func:
  5425                           	callstack 20
  5426   0019EA  0006               	pop		; remove dummy address from shadow register refresh
  5427   0019EC  CFFA F010          	movff	pclath,??_InterruptManager
  5428   0019F0  CFFB F011          	movff	pclatu,??_InterruptManager+1
  5429   0019F4  CFD9 F012          	movff	fsr2l,??_InterruptManager+2
  5430   0019F8  CFDA F013          	movff	fsr2h,??_InterruptManager+3
  5431   0019FC  CFF3 F014          	movff	prodl,??_InterruptManager+4
  5432   001A00  CFF4 F015          	movff	prodh,??_InterruptManager+5
  5433   001A04  CFF6 F016          	movff	tblptrl,??_InterruptManager+6
  5434   001A08  CFF7 F017          	movff	tblptrh,??_InterruptManager+7
  5435   001A0C  CFF8 F018          	movff	tblptru,??_InterruptManager+8
  5436   001A10  CFF5 F019          	movff	tablat,??_InterruptManager+9
  5437   001A14                     
  5438                           ;MCAL_Layer/Interrupt/mcal_interrupt_manager.c: 49:     if((1 == INTCONbits.INT0IE) && (
      +                          1 == INTCONbits.INT0IF))
  5439   001A14  A8F2               	btfss	242,4,c	;volatile
  5440   001A16  EF0F  F00D         	goto	i2u630_41
  5441   001A1A  EF11  F00D         	goto	i2u630_40
  5442   001A1E                     i2u630_41:
  5443   001A1E  EF1A  F00D         	goto	i2l1160
  5444   001A22                     i2u630_40:
  5445   001A22  A2F2               	btfss	242,1,c	;volatile
  5446   001A24  EF16  F00D         	goto	i2u631_41
  5447   001A28  EF18  F00D         	goto	i2u631_40
  5448   001A2C                     i2u631_41:
  5449   001A2C  EF1A  F00D         	goto	i2l1160
  5450   001A30                     i2u631_40:
  5451   001A30                     
  5452                           ;MCAL_Layer/Interrupt/mcal_interrupt_manager.c: 50:     {;MCAL_Layer/Interrupt/mcal_inte
      +                          rrupt_manager.c: 51:         INT0_ISR();
  5453   001A30  EC17  F01A         	call	_INT0_ISR	;wreg free
  5454   001A34                     i2l1160:
  5455                           
  5456                           ;MCAL_Layer/Interrupt/mcal_interrupt_manager.c: 54:     if((1 == INTCON3bits.INT1E) && (
      +                          1 == INTCON3bits.INT1F))
  5457   001A34  A6F0               	btfss	240,3,c	;volatile
  5458   001A36  EF1F  F00D         	goto	i2u632_41
  5459   001A3A  EF21  F00D         	goto	i2u632_40
  5460   001A3E                     i2u632_41:
  5461   001A3E  EF2A  F00D         	goto	i2l1162
  5462   001A42                     i2u632_40:
  5463   001A42  A0F0               	btfss	240,0,c	;volatile
  5464   001A44  EF26  F00D         	goto	i2u633_41
  5465   001A48  EF28  F00D         	goto	i2u633_40
  5466   001A4C                     i2u633_41:
  5467   001A4C  EF2A  F00D         	goto	i2l1162
  5468   001A50                     i2u633_40:
  5469   001A50                     
  5470                           ;MCAL_Layer/Interrupt/mcal_interrupt_manager.c: 55:     {;MCAL_Layer/Interrupt/mcal_inte
      +                          rrupt_manager.c: 56:         INT1_ISR();
  5471   001A50  EC15  F01A         	call	_INT1_ISR	;wreg free
  5472   001A54                     i2l1162:
  5473                           
  5474                           ;MCAL_Layer/Interrupt/mcal_interrupt_manager.c: 59:     if((1 == INTCON3bits.INT2IE) && 
      +                          (1 == INTCON3bits.INT2IF))
  5475   001A54  A8F0               	btfss	240,4,c	;volatile
  5476   001A56  EF2F  F00D         	goto	i2u634_41
  5477   001A5A  EF31  F00D         	goto	i2u634_40
  5478   001A5E                     i2u634_41:
  5479   001A5E  EF3A  F00D         	goto	i2l1164
  5480   001A62                     i2u634_40:
  5481   001A62  A2F0               	btfss	240,1,c	;volatile
  5482   001A64  EF36  F00D         	goto	i2u635_41
  5483   001A68  EF38  F00D         	goto	i2u635_40
  5484   001A6C                     i2u635_41:
  5485   001A6C  EF3A  F00D         	goto	i2l1164
  5486   001A70                     i2u635_40:
  5487   001A70                     
  5488                           ;MCAL_Layer/Interrupt/mcal_interrupt_manager.c: 60:     {;MCAL_Layer/Interrupt/mcal_inte
      +                          rrupt_manager.c: 61:         INT2_ISR();
  5489   001A70  EC13  F01A         	call	_INT2_ISR	;wreg free
  5490   001A74                     i2l1164:
  5491                           
  5492                           ;MCAL_Layer/Interrupt/mcal_interrupt_manager.c: 67:     if((1 == INTCONbits.RBIE) && (1 
      +                          == INTCONbits.RBIF) &&
  5493   001A74  A6F2               	btfss	242,3,c	;volatile
  5494   001A76  EF3F  F00D         	goto	i2u636_41
  5495   001A7A  EF41  F00D         	goto	i2u636_40
  5496   001A7E                     i2u636_41:
  5497   001A7E  EF5C  F00D         	goto	i2l1166
  5498   001A82                     i2u636_40:
  5499   001A82  A0F2               	btfss	242,0,c	;volatile
  5500   001A84  EF46  F00D         	goto	i2u637_41
  5501   001A88  EF48  F00D         	goto	i2u637_40
  5502   001A8C                     i2u637_41:
  5503   001A8C  EF5C  F00D         	goto	i2l1166
  5504   001A90                     i2u637_40:
  5505   001A90  A881               	btfss	129,4,c	;volatile
  5506   001A92  EF4D  F00D         	goto	i2u638_41
  5507   001A96  EF4F  F00D         	goto	i2u638_40
  5508   001A9A                     i2u638_41:
  5509   001A9A  EF5C  F00D         	goto	i2l1166
  5510   001A9E                     i2u638_40:
  5511   001A9E  0463               	decf	_RB4_Flag^0,w,c	;volatile
  5512   001AA0  A4D8               	btfss	status,2,c
  5513   001AA2  EF55  F00D         	goto	i2u639_41
  5514   001AA6  EF57  F00D         	goto	i2u639_40
  5515   001AAA                     i2u639_41:
  5516   001AAA  EF5C  F00D         	goto	i2l1166
  5517   001AAE                     i2u639_40:
  5518   001AAE                     
  5519                           ;MCAL_Layer/Interrupt/mcal_interrupt_manager.c: 69:     {;MCAL_Layer/Interrupt/mcal_inte
      +                          rrupt_manager.c: 70:         RB4_Flag = 0;
  5520   001AAE  0E00               	movlw	0
  5521   001AB0  6E63               	movwf	_RB4_Flag^0,c	;volatile
  5522   001AB2                     
  5523                           ;MCAL_Layer/Interrupt/mcal_interrupt_manager.c: 71:         RB4_ISR(0);
  5524   001AB2  0E00               	movlw	0
  5525   001AB4  ECD1  F019         	call	_RB4_ISR
  5526   001AB8                     i2l1166:
  5527                           
  5528                           ;MCAL_Layer/Interrupt/mcal_interrupt_manager.c: 74:     if((1 == INTCONbits.RBIE) && (1 
      +                          == INTCONbits.RBIF) &&
  5529   001AB8  A6F2               	btfss	242,3,c	;volatile
  5530   001ABA  EF61  F00D         	goto	i2u640_41
  5531   001ABE  EF63  F00D         	goto	i2u640_40
  5532   001AC2                     i2u640_41:
  5533   001AC2  EF7E  F00D         	goto	i2l1168
  5534   001AC6                     i2u640_40:
  5535   001AC6  A0F2               	btfss	242,0,c	;volatile
  5536   001AC8  EF68  F00D         	goto	i2u641_41
  5537   001ACC  EF6A  F00D         	goto	i2u641_40
  5538   001AD0                     i2u641_41:
  5539   001AD0  EF7E  F00D         	goto	i2l1168
  5540   001AD4                     i2u641_40:
  5541   001AD4  B881               	btfsc	129,4,c	;volatile
  5542   001AD6  EF6F  F00D         	goto	i2u642_41
  5543   001ADA  EF71  F00D         	goto	i2u642_40
  5544   001ADE                     i2u642_41:
  5545   001ADE  EF7E  F00D         	goto	i2l1168
  5546   001AE2                     i2u642_40:
  5547   001AE2  5063               	movf	_RB4_Flag^0,w,c	;volatile
  5548   001AE4  A4D8               	btfss	status,2,c
  5549   001AE6  EF77  F00D         	goto	i2u643_41
  5550   001AEA  EF79  F00D         	goto	i2u643_40
  5551   001AEE                     i2u643_41:
  5552   001AEE  EF7E  F00D         	goto	i2l1168
  5553   001AF2                     i2u643_40:
  5554   001AF2                     
  5555                           ;MCAL_Layer/Interrupt/mcal_interrupt_manager.c: 76:     {;MCAL_Layer/Interrupt/mcal_inte
      +                          rrupt_manager.c: 77:         RB4_Flag = 1;
  5556   001AF2  0E01               	movlw	1
  5557   001AF4  6E63               	movwf	_RB4_Flag^0,c	;volatile
  5558   001AF6                     
  5559                           ;MCAL_Layer/Interrupt/mcal_interrupt_manager.c: 78:         RB4_ISR(1);
  5560   001AF6  0E01               	movlw	1
  5561   001AF8  ECD1  F019         	call	_RB4_ISR
  5562   001AFC                     i2l1168:
  5563                           
  5564                           ;MCAL_Layer/Interrupt/mcal_interrupt_manager.c: 81:     if((1 == INTCONbits.RBIE) && (1 
      +                          == INTCONbits.RBIF) &&
  5565   001AFC  A6F2               	btfss	242,3,c	;volatile
  5566   001AFE  EF83  F00D         	goto	i2u644_41
  5567   001B02  EF85  F00D         	goto	i2u644_40
  5568   001B06                     i2u644_41:
  5569   001B06  EFA0  F00D         	goto	i2l1170
  5570   001B0A                     i2u644_40:
  5571   001B0A  A0F2               	btfss	242,0,c	;volatile
  5572   001B0C  EF8A  F00D         	goto	i2u645_41
  5573   001B10  EF8C  F00D         	goto	i2u645_40
  5574   001B14                     i2u645_41:
  5575   001B14  EFA0  F00D         	goto	i2l1170
  5576   001B18                     i2u645_40:
  5577   001B18  AA81               	btfss	129,5,c	;volatile
  5578   001B1A  EF91  F00D         	goto	i2u646_41
  5579   001B1E  EF93  F00D         	goto	i2u646_40
  5580   001B22                     i2u646_41:
  5581   001B22  EFA0  F00D         	goto	i2l1170
  5582   001B26                     i2u646_40:
  5583   001B26  0462               	decf	_RB5_Flag^0,w,c	;volatile
  5584   001B28  A4D8               	btfss	status,2,c
  5585   001B2A  EF99  F00D         	goto	i2u647_41
  5586   001B2E  EF9B  F00D         	goto	i2u647_40
  5587   001B32                     i2u647_41:
  5588   001B32  EFA0  F00D         	goto	i2l1170
  5589   001B36                     i2u647_40:
  5590   001B36                     
  5591                           ;MCAL_Layer/Interrupt/mcal_interrupt_manager.c: 83:     {;MCAL_Layer/Interrupt/mcal_inte
      +                          rrupt_manager.c: 84:         RB5_Flag = 0;
  5592   001B36  0E00               	movlw	0
  5593   001B38  6E62               	movwf	_RB5_Flag^0,c	;volatile
  5594   001B3A                     
  5595                           ;MCAL_Layer/Interrupt/mcal_interrupt_manager.c: 85:         RB5_ISR(0);
  5596   001B3A  0E00               	movlw	0
  5597   001B3C  ECC4  F019         	call	_RB5_ISR
  5598   001B40                     i2l1170:
  5599                           
  5600                           ;MCAL_Layer/Interrupt/mcal_interrupt_manager.c: 88:     if((1 == INTCONbits.RBIE) && (1 
      +                          == INTCONbits.RBIF) &&
  5601   001B40  A6F2               	btfss	242,3,c	;volatile
  5602   001B42  EFA5  F00D         	goto	i2u648_41
  5603   001B46  EFA7  F00D         	goto	i2u648_40
  5604   001B4A                     i2u648_41:
  5605   001B4A  EFC2  F00D         	goto	i2l1172
  5606   001B4E                     i2u648_40:
  5607   001B4E  A0F2               	btfss	242,0,c	;volatile
  5608   001B50  EFAC  F00D         	goto	i2u649_41
  5609   001B54  EFAE  F00D         	goto	i2u649_40
  5610   001B58                     i2u649_41:
  5611   001B58  EFC2  F00D         	goto	i2l1172
  5612   001B5C                     i2u649_40:
  5613   001B5C  BA81               	btfsc	129,5,c	;volatile
  5614   001B5E  EFB3  F00D         	goto	i2u650_41
  5615   001B62  EFB5  F00D         	goto	i2u650_40
  5616   001B66                     i2u650_41:
  5617   001B66  EFC2  F00D         	goto	i2l1172
  5618   001B6A                     i2u650_40:
  5619   001B6A  5062               	movf	_RB5_Flag^0,w,c	;volatile
  5620   001B6C  A4D8               	btfss	status,2,c
  5621   001B6E  EFBB  F00D         	goto	i2u651_41
  5622   001B72  EFBD  F00D         	goto	i2u651_40
  5623   001B76                     i2u651_41:
  5624   001B76  EFC2  F00D         	goto	i2l1172
  5625   001B7A                     i2u651_40:
  5626   001B7A                     
  5627                           ;MCAL_Layer/Interrupt/mcal_interrupt_manager.c: 90:     {;MCAL_Layer/Interrupt/mcal_inte
      +                          rrupt_manager.c: 91:         RB5_Flag = 1;
  5628   001B7A  0E01               	movlw	1
  5629   001B7C  6E62               	movwf	_RB5_Flag^0,c	;volatile
  5630   001B7E                     
  5631                           ;MCAL_Layer/Interrupt/mcal_interrupt_manager.c: 92:         RB5_ISR(1);
  5632   001B7E  0E01               	movlw	1
  5633   001B80  ECC4  F019         	call	_RB5_ISR
  5634   001B84                     i2l1172:
  5635                           
  5636                           ;MCAL_Layer/Interrupt/mcal_interrupt_manager.c: 95:     if((1 == INTCONbits.RBIE) && (1 
      +                          == INTCONbits.RBIF) &&
  5637   001B84  A6F2               	btfss	242,3,c	;volatile
  5638   001B86  EFC7  F00D         	goto	i2u652_41
  5639   001B8A  EFC9  F00D         	goto	i2u652_40
  5640   001B8E                     i2u652_41:
  5641   001B8E  EFE4  F00D         	goto	i2l1174
  5642   001B92                     i2u652_40:
  5643   001B92  A0F2               	btfss	242,0,c	;volatile
  5644   001B94  EFCE  F00D         	goto	i2u653_41
  5645   001B98  EFD0  F00D         	goto	i2u653_40
  5646   001B9C                     i2u653_41:
  5647   001B9C  EFE4  F00D         	goto	i2l1174
  5648   001BA0                     i2u653_40:
  5649   001BA0  AC81               	btfss	129,6,c	;volatile
  5650   001BA2  EFD5  F00D         	goto	i2u654_41
  5651   001BA6  EFD7  F00D         	goto	i2u654_40
  5652   001BAA                     i2u654_41:
  5653   001BAA  EFE4  F00D         	goto	i2l1174
  5654   001BAE                     i2u654_40:
  5655   001BAE  0461               	decf	_RB6_Flag^0,w,c	;volatile
  5656   001BB0  A4D8               	btfss	status,2,c
  5657   001BB2  EFDD  F00D         	goto	i2u655_41
  5658   001BB6  EFDF  F00D         	goto	i2u655_40
  5659   001BBA                     i2u655_41:
  5660   001BBA  EFE4  F00D         	goto	i2l1174
  5661   001BBE                     i2u655_40:
  5662   001BBE                     
  5663                           ;MCAL_Layer/Interrupt/mcal_interrupt_manager.c: 97:     {;MCAL_Layer/Interrupt/mcal_inte
      +                          rrupt_manager.c: 98:         RB6_Flag = 0;
  5664   001BBE  0E00               	movlw	0
  5665   001BC0  6E61               	movwf	_RB6_Flag^0,c	;volatile
  5666   001BC2                     
  5667                           ;MCAL_Layer/Interrupt/mcal_interrupt_manager.c: 99:         RB6_ISR(0);
  5668   001BC2  0E00               	movlw	0
  5669   001BC4  ECB7  F019         	call	_RB6_ISR
  5670   001BC8                     i2l1174:
  5671                           
  5672                           ;MCAL_Layer/Interrupt/mcal_interrupt_manager.c: 102:     if((1 == INTCONbits.RBIE) && (1
      +                           == INTCONbits.RBIF) &&
  5673   001BC8  A6F2               	btfss	242,3,c	;volatile
  5674   001BCA  EFE9  F00D         	goto	i2u656_41
  5675   001BCE  EFEB  F00D         	goto	i2u656_40
  5676   001BD2                     i2u656_41:
  5677   001BD2  EF06  F00E         	goto	i2l1176
  5678   001BD6                     i2u656_40:
  5679   001BD6  A0F2               	btfss	242,0,c	;volatile
  5680   001BD8  EFF0  F00D         	goto	i2u657_41
  5681   001BDC  EFF2  F00D         	goto	i2u657_40
  5682   001BE0                     i2u657_41:
  5683   001BE0  EF06  F00E         	goto	i2l1176
  5684   001BE4                     i2u657_40:
  5685   001BE4  BC81               	btfsc	129,6,c	;volatile
  5686   001BE6  EFF7  F00D         	goto	i2u658_41
  5687   001BEA  EFF9  F00D         	goto	i2u658_40
  5688   001BEE                     i2u658_41:
  5689   001BEE  EF06  F00E         	goto	i2l1176
  5690   001BF2                     i2u658_40:
  5691   001BF2  5061               	movf	_RB6_Flag^0,w,c	;volatile
  5692   001BF4  A4D8               	btfss	status,2,c
  5693   001BF6  EFFF  F00D         	goto	i2u659_41
  5694   001BFA  EF01  F00E         	goto	i2u659_40
  5695   001BFE                     i2u659_41:
  5696   001BFE  EF06  F00E         	goto	i2l1176
  5697   001C02                     i2u659_40:
  5698   001C02                     
  5699                           ;MCAL_Layer/Interrupt/mcal_interrupt_manager.c: 104:     {;MCAL_Layer/Interrupt/mcal_int
      +                          errupt_manager.c: 105:         RB6_Flag = 1;
  5700   001C02  0E01               	movlw	1
  5701   001C04  6E61               	movwf	_RB6_Flag^0,c	;volatile
  5702   001C06                     
  5703                           ;MCAL_Layer/Interrupt/mcal_interrupt_manager.c: 106:         RB6_ISR(1);
  5704   001C06  0E01               	movlw	1
  5705   001C08  ECB7  F019         	call	_RB6_ISR
  5706   001C0C                     i2l1176:
  5707                           
  5708                           ;MCAL_Layer/Interrupt/mcal_interrupt_manager.c: 109:     if((1 == INTCONbits.RBIE) && (1
      +                           == INTCONbits.RBIF) &&
  5709   001C0C  A6F2               	btfss	242,3,c	;volatile
  5710   001C0E  EF0B  F00E         	goto	i2u660_41
  5711   001C12  EF0D  F00E         	goto	i2u660_40
  5712   001C16                     i2u660_41:
  5713   001C16  EF28  F00E         	goto	i2l1178
  5714   001C1A                     i2u660_40:
  5715   001C1A  A0F2               	btfss	242,0,c	;volatile
  5716   001C1C  EF12  F00E         	goto	i2u661_41
  5717   001C20  EF14  F00E         	goto	i2u661_40
  5718   001C24                     i2u661_41:
  5719   001C24  EF28  F00E         	goto	i2l1178
  5720   001C28                     i2u661_40:
  5721   001C28  AE81               	btfss	129,7,c	;volatile
  5722   001C2A  EF19  F00E         	goto	i2u662_41
  5723   001C2E  EF1B  F00E         	goto	i2u662_40
  5724   001C32                     i2u662_41:
  5725   001C32  EF28  F00E         	goto	i2l1178
  5726   001C36                     i2u662_40:
  5727   001C36  0460               	decf	_RB7_Flag^0,w,c	;volatile
  5728   001C38  A4D8               	btfss	status,2,c
  5729   001C3A  EF21  F00E         	goto	i2u663_41
  5730   001C3E  EF23  F00E         	goto	i2u663_40
  5731   001C42                     i2u663_41:
  5732   001C42  EF28  F00E         	goto	i2l1178
  5733   001C46                     i2u663_40:
  5734   001C46                     
  5735                           ;MCAL_Layer/Interrupt/mcal_interrupt_manager.c: 111:     {;MCAL_Layer/Interrupt/mcal_int
      +                          errupt_manager.c: 112:         RB7_Flag = 0;
  5736   001C46  0E00               	movlw	0
  5737   001C48  6E60               	movwf	_RB7_Flag^0,c	;volatile
  5738   001C4A                     
  5739                           ;MCAL_Layer/Interrupt/mcal_interrupt_manager.c: 113:         RB7_ISR(0);
  5740   001C4A  0E00               	movlw	0
  5741   001C4C  ECAA  F019         	call	_RB7_ISR
  5742   001C50                     i2l1178:
  5743                           
  5744                           ;MCAL_Layer/Interrupt/mcal_interrupt_manager.c: 116:     if((1 == INTCONbits.RBIE) && (1
      +                           == INTCONbits.RBIF) &&
  5745   001C50  A6F2               	btfss	242,3,c	;volatile
  5746   001C52  EF2D  F00E         	goto	i2u664_41
  5747   001C56  EF2F  F00E         	goto	i2u664_40
  5748   001C5A                     i2u664_41:
  5749   001C5A  EF4A  F00E         	goto	i2l1180
  5750   001C5E                     i2u664_40:
  5751   001C5E  A0F2               	btfss	242,0,c	;volatile
  5752   001C60  EF34  F00E         	goto	i2u665_41
  5753   001C64  EF36  F00E         	goto	i2u665_40
  5754   001C68                     i2u665_41:
  5755   001C68  EF4A  F00E         	goto	i2l1180
  5756   001C6C                     i2u665_40:
  5757   001C6C  BE81               	btfsc	129,7,c	;volatile
  5758   001C6E  EF3B  F00E         	goto	i2u666_41
  5759   001C72  EF3D  F00E         	goto	i2u666_40
  5760   001C76                     i2u666_41:
  5761   001C76  EF4A  F00E         	goto	i2l1180
  5762   001C7A                     i2u666_40:
  5763   001C7A  5060               	movf	_RB7_Flag^0,w,c	;volatile
  5764   001C7C  A4D8               	btfss	status,2,c
  5765   001C7E  EF43  F00E         	goto	i2u667_41
  5766   001C82  EF45  F00E         	goto	i2u667_40
  5767   001C86                     i2u667_41:
  5768   001C86  EF4A  F00E         	goto	i2l1180
  5769   001C8A                     i2u667_40:
  5770   001C8A                     
  5771                           ;MCAL_Layer/Interrupt/mcal_interrupt_manager.c: 118:     {;MCAL_Layer/Interrupt/mcal_int
      +                          errupt_manager.c: 119:         RB7_Flag = 1;
  5772   001C8A  0E01               	movlw	1
  5773   001C8C  6E60               	movwf	_RB7_Flag^0,c	;volatile
  5774   001C8E                     
  5775                           ;MCAL_Layer/Interrupt/mcal_interrupt_manager.c: 120:         RB7_ISR(1);
  5776   001C8E  0E01               	movlw	1
  5777   001C90  ECAA  F019         	call	_RB7_ISR
  5778   001C94                     i2l1180:
  5779                           
  5780                           ;MCAL_Layer/Interrupt/mcal_interrupt_manager.c: 126:     if((1 == PIE1bits.ADIE) && (1 =
      +                          = PIR1bits.ADIF))
  5781   001C94  AC9D               	btfss	157,6,c	;volatile
  5782   001C96  EF4F  F00E         	goto	i2u668_41
  5783   001C9A  EF51  F00E         	goto	i2u668_40
  5784   001C9E                     i2u668_41:
  5785   001C9E  EF5A  F00E         	goto	i2l1182
  5786   001CA2                     i2u668_40:
  5787   001CA2  AC9E               	btfss	158,6,c	;volatile
  5788   001CA4  EF56  F00E         	goto	i2u669_41
  5789   001CA8  EF58  F00E         	goto	i2u669_40
  5790   001CAC                     i2u669_41:
  5791   001CAC  EF5A  F00E         	goto	i2l1182
  5792   001CB0                     i2u669_40:
  5793   001CB0                     
  5794                           ;MCAL_Layer/Interrupt/mcal_interrupt_manager.c: 127:     {;MCAL_Layer/Interrupt/mcal_int
      +                          errupt_manager.c: 128:         ADC_ISR();
  5795   001CB0  EC1D  F01A         	call	_ADC_ISR	;wreg free
  5796   001CB4                     i2l1182:
  5797                           
  5798                           ;MCAL_Layer/Interrupt/mcal_interrupt_manager.c: 134:     if((1 == INTCONbits.TMR0IE) && 
      +                          (1 == INTCONbits.TMR0IF))
  5799   001CB4  AAF2               	btfss	242,5,c	;volatile
  5800   001CB6  EF5F  F00E         	goto	i2u670_41
  5801   001CBA  EF61  F00E         	goto	i2u670_40
  5802   001CBE                     i2u670_41:
  5803   001CBE  EF6A  F00E         	goto	i2l1184
  5804   001CC2                     i2u670_40:
  5805   001CC2  A4F2               	btfss	242,2,c	;volatile
  5806   001CC4  EF66  F00E         	goto	i2u671_41
  5807   001CC8  EF68  F00E         	goto	i2u671_40
  5808   001CCC                     i2u671_41:
  5809   001CCC  EF6A  F00E         	goto	i2l1184
  5810   001CD0                     i2u671_40:
  5811   001CD0                     
  5812                           ;MCAL_Layer/Interrupt/mcal_interrupt_manager.c: 135:     {;MCAL_Layer/Interrupt/mcal_int
      +                          errupt_manager.c: 136:         TMR0_ISR();
  5813   001CD0  ECF9  F019         	call	_TMR0_ISR	;wreg free
  5814   001CD4                     i2l1184:
  5815                           
  5816                           ;MCAL_Layer/Interrupt/mcal_interrupt_manager.c: 139:     if((1 == PIE1bits.TMR1IE) && (1
      +                           == PIR1bits.TMR1IF))
  5817   001CD4  A09D               	btfss	157,0,c	;volatile
  5818   001CD6  EF6F  F00E         	goto	i2u672_41
  5819   001CDA  EF71  F00E         	goto	i2u672_40
  5820   001CDE                     i2u672_41:
  5821   001CDE  EF7A  F00E         	goto	i2l1186
  5822   001CE2                     i2u672_40:
  5823   001CE2  A09E               	btfss	158,0,c	;volatile
  5824   001CE4  EF76  F00E         	goto	i2u673_41
  5825   001CE8  EF78  F00E         	goto	i2u673_40
  5826   001CEC                     i2u673_41:
  5827   001CEC  EF7A  F00E         	goto	i2l1186
  5828   001CF0                     i2u673_40:
  5829   001CF0                     
  5830                           ;MCAL_Layer/Interrupt/mcal_interrupt_manager.c: 140:     {;MCAL_Layer/Interrupt/mcal_int
      +                          errupt_manager.c: 141:         TMR1_ISR();
  5831   001CF0  ECF3  F019         	call	_TMR1_ISR	;wreg free
  5832   001CF4                     i2l1186:
  5833                           
  5834                           ;MCAL_Layer/Interrupt/mcal_interrupt_manager.c: 144:     if((1 == PIE1bits.TMR2IE) && (1
      +                           == PIR1bits.TMR2IF))
  5835   001CF4  A29D               	btfss	157,1,c	;volatile
  5836   001CF6  EF7F  F00E         	goto	i2u674_41
  5837   001CFA  EF81  F00E         	goto	i2u674_40
  5838   001CFE                     i2u674_41:
  5839   001CFE  EF8A  F00E         	goto	i2l1188
  5840   001D02                     i2u674_40:
  5841   001D02  A29E               	btfss	158,1,c	;volatile
  5842   001D04  EF86  F00E         	goto	i2u675_41
  5843   001D08  EF88  F00E         	goto	i2u675_40
  5844   001D0C                     i2u675_41:
  5845   001D0C  EF8A  F00E         	goto	i2l1188
  5846   001D10                     i2u675_40:
  5847   001D10                     
  5848                           ;MCAL_Layer/Interrupt/mcal_interrupt_manager.c: 145:     {;MCAL_Layer/Interrupt/mcal_int
      +                          errupt_manager.c: 146:         TMR2_ISR();
  5849   001D10  ECFF  F019         	call	_TMR2_ISR	;wreg free
  5850   001D14                     i2l1188:
  5851                           
  5852                           ;MCAL_Layer/Interrupt/mcal_interrupt_manager.c: 149:     if((1 == PIE2bits.TMR3IE) && (1
      +                           == PIR2bits.TMR3IF))
  5853   001D14  A2A0               	btfss	160,1,c	;volatile
  5854   001D16  EF8F  F00E         	goto	i2u676_41
  5855   001D1A  EF91  F00E         	goto	i2u676_40
  5856   001D1E                     i2u676_41:
  5857   001D1E  EF9A  F00E         	goto	i2l1190
  5858   001D22                     i2u676_40:
  5859   001D22  A2A1               	btfss	161,1,c	;volatile
  5860   001D24  EF96  F00E         	goto	i2u677_41
  5861   001D28  EF98  F00E         	goto	i2u677_40
  5862   001D2C                     i2u677_41:
  5863   001D2C  EF9A  F00E         	goto	i2l1190
  5864   001D30                     i2u677_40:
  5865   001D30                     
  5866                           ;MCAL_Layer/Interrupt/mcal_interrupt_manager.c: 150:     {;MCAL_Layer/Interrupt/mcal_int
      +                          errupt_manager.c: 151:         TMR3_ISR();
  5867   001D30  ECED  F019         	call	_TMR3_ISR	;wreg free
  5868   001D34                     i2l1190:
  5869                           
  5870                           ;MCAL_Layer/Interrupt/mcal_interrupt_manager.c: 157:     if((1 == PIE1bits.TXIE) && (1 =
      +                          = PIR1bits.TXIF))
  5871   001D34  A89D               	btfss	157,4,c	;volatile
  5872   001D36  EF9F  F00E         	goto	i2u678_41
  5873   001D3A  EFA1  F00E         	goto	i2u678_40
  5874   001D3E                     i2u678_41:
  5875   001D3E  EFAA  F00E         	goto	i2l1192
  5876   001D42                     i2u678_40:
  5877   001D42  A89E               	btfss	158,4,c	;volatile
  5878   001D44  EFA6  F00E         	goto	i2u679_41
  5879   001D48  EFA8  F00E         	goto	i2u679_40
  5880   001D4C                     i2u679_41:
  5881   001D4C  EFAA  F00E         	goto	i2l1192
  5882   001D50                     i2u679_40:
  5883   001D50                     
  5884                           ;MCAL_Layer/Interrupt/mcal_interrupt_manager.c: 158:     {;MCAL_Layer/Interrupt/mcal_int
      +                          errupt_manager.c: 159:         USART_TX_ISR();
  5885   001D50  EC50  F019         	call	_USART_TX_ISR	;wreg free
  5886   001D54                     i2l1192:
  5887                           
  5888                           ;MCAL_Layer/Interrupt/mcal_interrupt_manager.c: 162:     if((1 == PIE1bits.RCIE) && (1 =
      +                          = PIR1bits.RCIF))
  5889   001D54  AA9D               	btfss	157,5,c	;volatile
  5890   001D56  EFAF  F00E         	goto	i2u680_41
  5891   001D5A  EFB1  F00E         	goto	i2u680_40
  5892   001D5E                     i2u680_41:
  5893   001D5E  EFBA  F00E         	goto	i2l1194
  5894   001D62                     i2u680_40:
  5895   001D62  AA9E               	btfss	158,5,c	;volatile
  5896   001D64  EFB6  F00E         	goto	i2u681_41
  5897   001D68  EFB8  F00E         	goto	i2u681_40
  5898   001D6C                     i2u681_41:
  5899   001D6C  EFBA  F00E         	goto	i2l1194
  5900   001D70                     i2u681_40:
  5901   001D70                     
  5902                           ;MCAL_Layer/Interrupt/mcal_interrupt_manager.c: 163:     {;MCAL_Layer/Interrupt/mcal_int
      +                          errupt_manager.c: 164:         USART_RX_ISR();
  5903   001D70  ECBE  F016         	call	_USART_RX_ISR	;wreg free
  5904   001D74                     i2l1194:
  5905                           
  5906                           ;MCAL_Layer/Interrupt/mcal_interrupt_manager.c: 170:     if((1 == PIE1bits.SSPIE) && (1 
      +                          == PIR1bits.SSPIF))
  5907   001D74  A69D               	btfss	157,3,c	;volatile
  5908   001D76  EFBF  F00E         	goto	i2u682_41
  5909   001D7A  EFC1  F00E         	goto	i2u682_40
  5910   001D7E                     i2u682_41:
  5911   001D7E  EFCA  F00E         	goto	i2l1196
  5912   001D82                     i2u682_40:
  5913   001D82  A69E               	btfss	158,3,c	;volatile
  5914   001D84  EFC6  F00E         	goto	i2u683_41
  5915   001D88  EFC8  F00E         	goto	i2u683_40
  5916   001D8C                     i2u683_41:
  5917   001D8C  EFCA  F00E         	goto	i2l1196
  5918   001D90                     i2u683_40:
  5919   001D90                     
  5920                           ;MCAL_Layer/Interrupt/mcal_interrupt_manager.c: 171:     {;MCAL_Layer/Interrupt/mcal_int
      +                          errupt_manager.c: 172:         MSSP_I2C_ISR();
  5921   001D90  EC0F  F01A         	call	_MSSP_I2C_ISR	;wreg free
  5922   001D94                     i2l1196:
  5923                           
  5924                           ;MCAL_Layer/Interrupt/mcal_interrupt_manager.c: 175:     if((1 == PIE2bits.BCLIE) && (1 
      +                          == PIR2bits.BCLIF))
  5925   001D94  A6A0               	btfss	160,3,c	;volatile
  5926   001D96  EFCF  F00E         	goto	i2u684_41
  5927   001D9A  EFD1  F00E         	goto	i2u684_40
  5928   001D9E                     i2u684_41:
  5929   001D9E  EFDA  F00E         	goto	i2l1198
  5930   001DA2                     i2u684_40:
  5931   001DA2  A6A1               	btfss	161,3,c	;volatile
  5932   001DA4  EFD6  F00E         	goto	i2u685_41
  5933   001DA8  EFD8  F00E         	goto	i2u685_40
  5934   001DAC                     i2u685_41:
  5935   001DAC  EFDA  F00E         	goto	i2l1198
  5936   001DB0                     i2u685_40:
  5937   001DB0                     
  5938                           ;MCAL_Layer/Interrupt/mcal_interrupt_manager.c: 176:     {;MCAL_Layer/Interrupt/mcal_int
      +                          errupt_manager.c: 177:         MSSP_I2C_BC_ISR();
  5939   001DB0  EC11  F01A         	call	_MSSP_I2C_BC_ISR	;wreg free
  5940   001DB4                     i2l1198:
  5941                           
  5942                           ;MCAL_Layer/Interrupt/mcal_interrupt_manager.c: 183:     if((1 == PIE1bits.CCP1IE) && (1
      +                           == PIR1bits.CCP1IF))
  5943   001DB4  A49D               	btfss	157,2,c	;volatile
  5944   001DB6  EFDF  F00E         	goto	i2u686_41
  5945   001DBA  EFE1  F00E         	goto	i2u686_40
  5946   001DBE                     i2u686_41:
  5947   001DBE  EFEA  F00E         	goto	i2l1200
  5948   001DC2                     i2u686_40:
  5949   001DC2  A49E               	btfss	158,2,c	;volatile
  5950   001DC4  EFE6  F00E         	goto	i2u687_41
  5951   001DC8  EFE8  F00E         	goto	i2u687_40
  5952   001DCC                     i2u687_41:
  5953   001DCC  EFEA  F00E         	goto	i2l1200
  5954   001DD0                     i2u687_40:
  5955   001DD0                     
  5956                           ;MCAL_Layer/Interrupt/mcal_interrupt_manager.c: 184:     {;MCAL_Layer/Interrupt/mcal_int
      +                          errupt_manager.c: 185:         CCP1_ISR();
  5957   001DD0  EC1B  F01A         	call	_CCP1_ISR	;wreg free
  5958   001DD4                     i2l1200:
  5959                           
  5960                           ;MCAL_Layer/Interrupt/mcal_interrupt_manager.c: 188:     if((1 == PIE2bits.CCP2IE) && (1
      +                           == PIR2bits.CCP2IF))
  5961   001DD4  A0A0               	btfss	160,0,c	;volatile
  5962   001DD6  EFEF  F00E         	goto	i2u688_41
  5963   001DDA  EFF1  F00E         	goto	i2u688_40
  5964   001DDE                     i2u688_41:
  5965   001DDE  EFFA  F00E         	goto	i2l1203
  5966   001DE2                     i2u688_40:
  5967   001DE2  A0A1               	btfss	161,0,c	;volatile
  5968   001DE4  EFF6  F00E         	goto	i2u689_41
  5969   001DE8  EFF8  F00E         	goto	i2u689_40
  5970   001DEC                     i2u689_41:
  5971   001DEC  EFFA  F00E         	goto	i2l1203
  5972   001DF0                     i2u689_40:
  5973   001DF0                     
  5974                           ;MCAL_Layer/Interrupt/mcal_interrupt_manager.c: 189:     {;MCAL_Layer/Interrupt/mcal_int
      +                          errupt_manager.c: 190:         CCP2_ISR();
  5975   001DF0  EC19  F01A         	call	_CCP2_ISR	;wreg free
  5976   001DF4                     i2l1203:
  5977   001DF4  C019  FFF5         	movff	??_InterruptManager+9,tablat
  5978   001DF8  C018  FFF8         	movff	??_InterruptManager+8,tblptru
  5979   001DFC  C017  FFF7         	movff	??_InterruptManager+7,tblptrh
  5980   001E00  C016  FFF6         	movff	??_InterruptManager+6,tblptrl
  5981   001E04  C015  FFF4         	movff	??_InterruptManager+5,prodh
  5982   001E08  C014  FFF3         	movff	??_InterruptManager+4,prodl
  5983   001E0C  C013  FFDA         	movff	??_InterruptManager+3,fsr2h
  5984   001E10  C012  FFD9         	movff	??_InterruptManager+2,fsr2l
  5985   001E14  C011  FFFB         	movff	??_InterruptManager+1,pclatu
  5986   001E18  C010  FFFA         	movff	??_InterruptManager,pclath
  5987   001E1C  9266               	bcf	int$flags,1,c	;clear compiler interrupt flag (level 2)
  5988   001E1E  0011               	retfie		f
  5989   001E20                     __end_of_InterruptManager:
  5990                           	callstack 0
  5991                           
  5992 ;; *************** function _USART_TX_ISR *****************
  5993 ;; Defined at:
  5994 ;;		line 409 in file "MCAL_Layer/USART/hal_usart.c"
  5995 ;; Parameters:    Size  Location     Type
  5996 ;;		None
  5997 ;; Auto vars:     Size  Location     Type
  5998 ;;		None
  5999 ;; Return value:  Size  Location     Type
  6000 ;;                  1    wreg      void 
  6001 ;; Registers used:
  6002 ;;		wreg, status,2, status,0, pcl, pclath, pclatu, tosl, cstack
  6003 ;; Tracked objects:
  6004 ;;		On entry : 0/0
  6005 ;;		On exit  : 0/0
  6006 ;;		Unchanged: 0/0
  6007 ;; Data sizes:     COMRAM   BANK0   BANK1   BANK2   BANK3   BANK4   BANK5   BANK6   BANK7   BANK8   BANK9  BANK10  BANK1
      +1  BANK12  BANK13  BANK14  BANK15
  6008 ;;      Params:         0       0       0       0       0       0       0       0       0       0       0       0       
      +0       0       0       0       0
  6009 ;;      Locals:         0       0       0       0       0       0       0       0       0       0       0       0       
      +0       0       0       0       0
  6010 ;;      Temps:          0       0       0       0       0       0       0       0       0       0       0       0       
      +0       0       0       0       0
  6011 ;;      Totals:         0       0       0       0       0       0       0       0       0       0       0       0       
      +0       0       0       0       0
  6012 ;;Total ram usage:        0 bytes
  6013 ;; Hardware stack levels used: 1
  6014 ;; Hardware stack levels required when called: 1
  6015 ;; This function calls:
  6016 ;;		NULL
  6017 ;;		_USART_TxDefaultInterruptHandler
  6018 ;; This function is called by:
  6019 ;;		_InterruptManager
  6020 ;; This function uses a non-reentrant model
  6021 ;;
  6022                           
  6023                           	psect	text24
  6024   0032A0                     __ptext24:
  6025                           	callstack 0
  6026   0032A0                     _USART_TX_ISR:
  6027                           	callstack 22
  6028   0032A0                     
  6029                           ;MCAL_Layer/USART/hal_usart.c: 412:     (PIE1bits.TXIE = 0);
  6030   0032A0  989D               	bcf	157,4,c	;volatile
  6031   0032A2                     
  6032                           ;MCAL_Layer/USART/hal_usart.c: 413:     if(USART_TxDefaultInterruptHandler)
  6033   0032A2  504D               	movf	_USART_TxDefaultInterruptHandler@hal_usart$F3869^0,w,c
  6034   0032A4  104E               	iorwf	(_USART_TxDefaultInterruptHandler@hal_usart$F3869+1)^0,w,c
  6035   0032A6  B4D8               	btfsc	status,2,c
  6036   0032A8  EF58  F019         	goto	i2u533_41
  6037   0032AC  EF5A  F019         	goto	i2u533_40
  6038   0032B0                     i2u533_41:
  6039   0032B0  EF66  F019         	goto	i2l1544
  6040   0032B4                     i2u533_40:
  6041   0032B4                     
  6042                           ;MCAL_Layer/USART/hal_usart.c: 414:     {;MCAL_Layer/USART/hal_usart.c: 415:         USA
      +                          RT_TxDefaultInterruptHandler();
  6043   0032B4  D802               	call	i2u534_48
  6044   0032B6  EF66  F019         	goto	i2u534_49
  6045   0032BA                     i2u534_48:
  6046   0032BA  0005               	push	
  6047   0032BC  6EFA               	movwf	pclath,c
  6048   0032BE  504D               	movf	_USART_TxDefaultInterruptHandler@hal_usart$F3869^0,w,c
  6049   0032C0  6EFD               	movwf	tosl,c
  6050   0032C2  504E               	movf	(_USART_TxDefaultInterruptHandler@hal_usart$F3869+1)^0,w,c
  6051   0032C4  6EFE               	movwf	tosh,c
  6052   0032C6  6AFF               	clrf	tosu,c
  6053   0032C8  50FA               	movf	pclath,w,c
  6054   0032CA  0012               	return		;indir
  6055   0032CC                     i2u534_49:
  6056   0032CC                     i2l1544:
  6057   0032CC  0012               	return		;funcret
  6058   0032CE                     __end_of_USART_TX_ISR:
  6059                           	callstack 0
  6060                           
  6061 ;; *************** function _USART_TxDefaultInterruptHandler *****************
  6062 ;; Defined at:
  6063 ;;		line 56 in file "application.c"
  6064 ;; Parameters:    Size  Location     Type
  6065 ;;		None
  6066 ;; Auto vars:     Size  Location     Type
  6067 ;;		None
  6068 ;; Return value:  Size  Location     Type
  6069 ;;                  1    wreg      void 
  6070 ;; Registers used:
  6071 ;;		wreg, status,2, status,0
  6072 ;; Tracked objects:
  6073 ;;		On entry : 0/0
  6074 ;;		On exit  : 0/0
  6075 ;;		Unchanged: 0/0
  6076 ;; Data sizes:     COMRAM   BANK0   BANK1   BANK2   BANK3   BANK4   BANK5   BANK6   BANK7   BANK8   BANK9  BANK10  BANK1
      +1  BANK12  BANK13  BANK14  BANK15
  6077 ;;      Params:         0       0       0       0       0       0       0       0       0       0       0       0       
      +0       0       0       0       0
  6078 ;;      Locals:         0       0       0       0       0       0       0       0       0       0       0       0       
      +0       0       0       0       0
  6079 ;;      Temps:          0       0       0       0       0       0       0       0       0       0       0       0       
      +0       0       0       0       0
  6080 ;;      Totals:         0       0       0       0       0       0       0       0       0       0       0       0       
      +0       0       0       0       0
  6081 ;;Total ram usage:        0 bytes
  6082 ;; Hardware stack levels used: 1
  6083 ;; This function calls:
  6084 ;;		Nothing
  6085 ;; This function is called by:
  6086 ;;		_usart_module_int_init
  6087 ;;		_USART_TX_ISR
  6088 ;; This function uses a non-reentrant model
  6089 ;;
  6090                           
  6091                           	psect	text25
  6092   0033BC                     __ptext25:
  6093                           	callstack 0
  6094   0033BC                     _USART_TxDefaultInterruptHandler:
  6095                           	callstack 22
  6096   0033BC                     
  6097                           ;application.c: 58:     valid_usart_tx++;
  6098   0033BC  0E01               	movlw	1
  6099   0033BE  0100               	movlb	0	; () banked
  6100   0033C0  278A               	addwf	_valid_usart_tx& (0+255),f,b	;volatile
  6101   0033C2  0E00               	movlw	0
  6102   0033C4  238B               	addwfc	(_valid_usart_tx+1)& (0+255),f,b	;volatile
  6103   0033C6  238C               	addwfc	(_valid_usart_tx+2)& (0+255),f,b	;volatile
  6104   0033C8  238D               	addwfc	(_valid_usart_tx+3)& (0+255),f,b	;volatile
  6105   0033CA                     
  6106                           ; BSR set to: 0
  6107   0033CA  0012               	return		;funcret
  6108   0033CC                     __end_of_USART_TxDefaultInterruptHandler:
  6109                           	callstack 0
  6110                           
  6111 ;; *************** function _USART_RX_ISR *****************
  6112 ;; Defined at:
  6113 ;;		line 423 in file "MCAL_Layer/USART/hal_usart.c"
  6114 ;; Parameters:    Size  Location     Type
  6115 ;;		None
  6116 ;; Auto vars:     Size  Location     Type
  6117 ;;		None
  6118 ;; Return value:  Size  Location     Type
  6119 ;;                  1    wreg      void 
  6120 ;; Registers used:
  6121 ;;		wreg, fsr2l, fsr2h, status,2, status,0, pcl, pclath, pclatu, tosl, tblptrl, tblptrh, tblptru, prodl, prodh, cstack
  6122 ;; Tracked objects:
  6123 ;;		On entry : 0/0
  6124 ;;		On exit  : 0/0
  6125 ;;		Unchanged: 0/0
  6126 ;; Data sizes:     COMRAM   BANK0   BANK1   BANK2   BANK3   BANK4   BANK5   BANK6   BANK7   BANK8   BANK9  BANK10  BANK1
      +1  BANK12  BANK13  BANK14  BANK15
  6127 ;;      Params:         0       0       0       0       0       0       0       0       0       0       0       0       
      +0       0       0       0       0
  6128 ;;      Locals:         0       0       0       0       0       0       0       0       0       0       0       0       
      +0       0       0       0       0
  6129 ;;      Temps:          0       0       0       0       0       0       0       0       0       0       0       0       
      +0       0       0       0       0
  6130 ;;      Totals:         0       0       0       0       0       0       0       0       0       0       0       0       
      +0       0       0       0       0
  6131 ;;Total ram usage:        0 bytes
  6132 ;; Hardware stack levels used: 1
  6133 ;; Hardware stack levels required when called: 3
  6134 ;; This function calls:
  6135 ;;		NULL
  6136 ;;		_USART_FramingDefaultErrorHandler
  6137 ;;		_USART_OverrunDefaultErrorHandler
  6138 ;;		_USART_RxDefaultInterruptHandler
  6139 ;; This function is called by:
  6140 ;;		_InterruptManager
  6141 ;; This function uses a non-reentrant model
  6142 ;;
  6143                           
  6144                           	psect	text26
  6145   002D7C                     __ptext26:
  6146                           	callstack 0
  6147   002D7C                     _USART_RX_ISR:
  6148                           	callstack 20
  6149   002D7C                     
  6150                           ;MCAL_Layer/USART/hal_usart.c: 425:   if(USART_RxDefaultInterruptHandler)
  6151   002D7C  504B               	movf	_USART_RxDefaultInterruptHandler@hal_usart$F3870^0,w,c
  6152   002D7E  104C               	iorwf	(_USART_RxDefaultInterruptHandler@hal_usart$F3870+1)^0,w,c
  6153   002D80  B4D8               	btfsc	status,2,c
  6154   002D82  EFC5  F016         	goto	i2u535_41
  6155   002D86  EFC7  F016         	goto	i2u535_40
  6156   002D8A                     i2u535_41:
  6157   002D8A  EFD3  F016         	goto	i2l6556
  6158   002D8E                     i2u535_40:
  6159   002D8E                     
  6160                           ;MCAL_Layer/USART/hal_usart.c: 426:     {;MCAL_Layer/USART/hal_usart.c: 427:         USA
      +                          RT_RxDefaultInterruptHandler();
  6161   002D8E  D802               	call	i2u536_48
  6162   002D90  EFD3  F016         	goto	i2u536_49
  6163   002D94                     i2u536_48:
  6164   002D94  0005               	push	
  6165   002D96  6EFA               	movwf	pclath,c
  6166   002D98  504B               	movf	_USART_RxDefaultInterruptHandler@hal_usart$F3870^0,w,c
  6167   002D9A  6EFD               	movwf	tosl,c
  6168   002D9C  504C               	movf	(_USART_RxDefaultInterruptHandler@hal_usart$F3870+1)^0,w,c
  6169   002D9E  6EFE               	movwf	tosh,c
  6170   002DA0  6AFF               	clrf	tosu,c
  6171   002DA2  50FA               	movf	pclath,w,c
  6172   002DA4  0012               	return		;indir
  6173   002DA6                     i2u536_49:
  6174   002DA6                     i2l6556:
  6175                           
  6176                           ;MCAL_Layer/USART/hal_usart.c: 431:   if(USART_FramingErrorHandler)
  6177   002DA6  5049               	movf	_USART_FramingErrorHandler^0,w,c
  6178   002DA8  104A               	iorwf	(_USART_FramingErrorHandler+1)^0,w,c
  6179   002DAA  B4D8               	btfsc	status,2,c
  6180   002DAC  EFDA  F016         	goto	i2u537_41
  6181   002DB0  EFDC  F016         	goto	i2u537_40
  6182   002DB4                     i2u537_41:
  6183   002DB4  EFE8  F016         	goto	i2l6560
  6184   002DB8                     i2u537_40:
  6185   002DB8                     
  6186                           ;MCAL_Layer/USART/hal_usart.c: 432:     {;MCAL_Layer/USART/hal_usart.c: 433:         USA
      +                          RT_FramingErrorHandler();
  6187   002DB8  D802               	call	i2u538_48
  6188   002DBA  EFE8  F016         	goto	i2u538_49
  6189   002DBE                     i2u538_48:
  6190   002DBE  0005               	push	
  6191   002DC0  6EFA               	movwf	pclath,c
  6192   002DC2  5049               	movf	_USART_FramingErrorHandler^0,w,c
  6193   002DC4  6EFD               	movwf	tosl,c
  6194   002DC6  504A               	movf	(_USART_FramingErrorHandler+1)^0,w,c
  6195   002DC8  6EFE               	movwf	tosh,c
  6196   002DCA  6AFF               	clrf	tosu,c
  6197   002DCC  50FA               	movf	pclath,w,c
  6198   002DCE  0012               	return		;indir
  6199   002DD0                     i2u538_49:
  6200   002DD0                     i2l6560:
  6201                           
  6202                           ;MCAL_Layer/USART/hal_usart.c: 437:   if(USART_OverrunErrorHandler)
  6203   002DD0  5047               	movf	_USART_OverrunErrorHandler^0,w,c
  6204   002DD2  1048               	iorwf	(_USART_OverrunErrorHandler+1)^0,w,c
  6205   002DD4  B4D8               	btfsc	status,2,c
  6206   002DD6  EFEF  F016         	goto	i2u539_41
  6207   002DDA  EFF1  F016         	goto	i2u539_40
  6208   002DDE                     i2u539_41:
  6209   002DDE  EFFD  F016         	goto	i2l1553
  6210   002DE2                     i2u539_40:
  6211   002DE2                     
  6212                           ;MCAL_Layer/USART/hal_usart.c: 438:     {;MCAL_Layer/USART/hal_usart.c: 439:         USA
      +                          RT_OverrunErrorHandler();
  6213   002DE2  D802               	call	i2u540_48
  6214   002DE4  EFFD  F016         	goto	i2u540_49
  6215   002DE8                     i2u540_48:
  6216   002DE8  0005               	push	
  6217   002DEA  6EFA               	movwf	pclath,c
  6218   002DEC  5047               	movf	_USART_OverrunErrorHandler^0,w,c
  6219   002DEE  6EFD               	movwf	tosl,c
  6220   002DF0  5048               	movf	(_USART_OverrunErrorHandler+1)^0,w,c
  6221   002DF2  6EFE               	movwf	tosh,c
  6222   002DF4  6AFF               	clrf	tosu,c
  6223   002DF6  50FA               	movf	pclath,w,c
  6224   002DF8  0012               	return		;indir
  6225   002DFA                     i2u540_49:
  6226   002DFA                     i2l1553:
  6227   002DFA  0012               	return		;funcret
  6228   002DFC                     __end_of_USART_RX_ISR:
  6229                           	callstack 0
  6230                           
  6231 ;; *************** function _USART_RxDefaultInterruptHandler *****************
  6232 ;; Defined at:
  6233 ;;		line 61 in file "application.c"
  6234 ;; Parameters:    Size  Location     Type
  6235 ;;		None
  6236 ;; Auto vars:     Size  Location     Type
  6237 ;;  ret             1    0        unsigned char 
  6238 ;; Return value:  Size  Location     Type
  6239 ;;                  1    wreg      void 
  6240 ;; Registers used:
  6241 ;;		wreg, fsr2l, fsr2h, status,2, status,0, tblptrl, tblptrh, tblptru, prodl, prodh, cstack
  6242 ;; Tracked objects:
  6243 ;;		On entry : 0/0
  6244 ;;		On exit  : 0/0
  6245 ;;		Unchanged: 0/0
  6246 ;; Data sizes:     COMRAM   BANK0   BANK1   BANK2   BANK3   BANK4   BANK5   BANK6   BANK7   BANK8   BANK9  BANK10  BANK1
      +1  BANK12  BANK13  BANK14  BANK15
  6247 ;;      Params:         0       0       0       0       0       0       0       0       0       0       0       0       
      +0       0       0       0       0
  6248 ;;      Locals:         0       0       0       0       0       0       0       0       0       0       0       0       
      +0       0       0       0       0
  6249 ;;      Temps:          2       0       0       0       0       0       0       0       0       0       0       0       
      +0       0       0       0       0
  6250 ;;      Totals:         2       0       0       0       0       0       0       0       0       0       0       0       
      +0       0       0       0       0
  6251 ;;Total ram usage:        2 bytes
  6252 ;; Hardware stack levels used: 1
  6253 ;; Hardware stack levels required when called: 2
  6254 ;; This function calls:
  6255 ;;		_USART_Asynchronous_ReadByte_NonBlocking
  6256 ;;		_USART_Asynchronous_WriteString_Blocking
  6257 ;;		_led_turn_off
  6258 ;;		_led_turn_on
  6259 ;; This function is called by:
  6260 ;;		_usart_module_int_init
  6261 ;;		_USART_RX_ISR
  6262 ;; This function uses a non-reentrant model
  6263 ;;
  6264                           
  6265                           	psect	text27
  6266   002A56                     __ptext27:
  6267                           	callstack 0
  6268   002A56                     _USART_RxDefaultInterruptHandler:
  6269                           	callstack 20
  6270   002A56                     
  6271                           ;application.c: 64:     valid_usart_rx++;
  6272   002A56  0E01               	movlw	1
  6273   002A58  0100               	movlb	0	; () banked
  6274   002A5A  2786               	addwf	_valid_usart_rx& (0+255),f,b	;volatile
  6275   002A5C  0E00               	movlw	0
  6276   002A5E  2387               	addwfc	(_valid_usart_rx+1)& (0+255),f,b	;volatile
  6277   002A60  2388               	addwfc	(_valid_usart_rx+2)& (0+255),f,b	;volatile
  6278   002A62  2389               	addwfc	(_valid_usart_rx+3)& (0+255),f,b	;volatile
  6279   002A64                     
  6280                           ; BSR set to: 0
  6281   002A64  0E5F               	movlw	low _receive_usart_data
  6282   002A66  6E01               	movwf	USART_Asynchronous_ReadByte_NonBlocking@_data^0,c
  6283   002A68  0E00               	movlw	high _receive_usart_data
  6284   002A6A  6E02               	movwf	(USART_Asynchronous_ReadByte_NonBlocking@_data+1)^0,c
  6285   002A6C  EC67  F019         	call	_USART_Asynchronous_ReadByte_NonBlocking	;wreg free
  6286                           
  6287                           ;application.c: 66:     switch(receive_usart_data)
  6288   002A70  EF90  F015         	goto	i2l6306
  6289   002A74                     i2l6288:
  6290   002A74  0E65               	movlw	low _led1
  6291   002A76  6E0A               	movwf	led_turn_on@led^0,c
  6292   002A78  0E00               	movlw	high _led1
  6293   002A7A  6E0B               	movwf	(led_turn_on@led+1)^0,c
  6294   002A7C  EC3C  F017         	call	_led_turn_on	;wreg free
  6295   002A80  0E25               	movlw	low STR_4
  6296   002A82  6E02               	movwf	USART_Asynchronous_WriteString_Blocking@_data^0,c
  6297   002A84  0E10               	movlw	high STR_4
  6298   002A86  6E03               	movwf	(USART_Asynchronous_WriteString_Blocking@_data+1)^0,c
  6299   002A88  0E00               	movlw	0
  6300   002A8A  6E05               	movwf	(USART_Asynchronous_WriteString_Blocking@str_length+1)^0,c
  6301   002A8C  0E08               	movlw	8
  6302   002A8E  6E04               	movwf	USART_Asynchronous_WriteString_Blocking@str_length^0,c
  6303   002A90  EC86  F018         	call	_USART_Asynchronous_WriteString_Blocking	;wreg free
  6304                           
  6305                           ;application.c: 70:         break;
  6306   002A94  EFAD  F015         	goto	i2l1603
  6307   002A98                     i2l6292:
  6308   002A98  0E65               	movlw	low _led1
  6309   002A9A  6E0A               	movwf	led_turn_off@led^0,c
  6310   002A9C  0E00               	movlw	high _led1
  6311   002A9E  6E0B               	movwf	(led_turn_off@led+1)^0,c
  6312   002AA0  EC77  F017         	call	_led_turn_off	;wreg free
  6313   002AA4  0E11               	movlw	low STR_5
  6314   002AA6  6E02               	movwf	USART_Asynchronous_WriteString_Blocking@_data^0,c
  6315   002AA8  0E10               	movlw	high STR_5
  6316   002AAA  6E03               	movwf	(USART_Asynchronous_WriteString_Blocking@_data+1)^0,c
  6317   002AAC  0E00               	movlw	0
  6318   002AAE  6E05               	movwf	(USART_Asynchronous_WriteString_Blocking@str_length+1)^0,c
  6319   002AB0  0E09               	movlw	9
  6320   002AB2  6E04               	movwf	USART_Asynchronous_WriteString_Blocking@str_length^0,c
  6321   002AB4  EC86  F018         	call	_USART_Asynchronous_WriteString_Blocking	;wreg free
  6322                           
  6323                           ;application.c: 73:         break;
  6324   002AB8  EFAD  F015         	goto	i2l1603
  6325   002ABC                     i2l6296:
  6326   002ABC  0E64               	movlw	low _led2
  6327   002ABE  6E0A               	movwf	led_turn_on@led^0,c
  6328   002AC0  0E00               	movlw	high _led2
  6329   002AC2  6E0B               	movwf	(led_turn_on@led+1)^0,c
  6330   002AC4  EC3C  F017         	call	_led_turn_on	;wreg free
  6331   002AC8  0E2E               	movlw	low STR_6
  6332   002ACA  6E02               	movwf	USART_Asynchronous_WriteString_Blocking@_data^0,c
  6333   002ACC  0E10               	movlw	high STR_6
  6334   002ACE  6E03               	movwf	(USART_Asynchronous_WriteString_Blocking@_data+1)^0,c
  6335   002AD0  0E00               	movlw	0
  6336   002AD2  6E05               	movwf	(USART_Asynchronous_WriteString_Blocking@str_length+1)^0,c
  6337   002AD4  0E08               	movlw	8
  6338   002AD6  6E04               	movwf	USART_Asynchronous_WriteString_Blocking@str_length^0,c
  6339   002AD8  EC86  F018         	call	_USART_Asynchronous_WriteString_Blocking	;wreg free
  6340                           
  6341                           ;application.c: 76:         break;
  6342   002ADC  EFAD  F015         	goto	i2l1603
  6343   002AE0                     i2l6300:
  6344   002AE0  0E64               	movlw	low _led2
  6345   002AE2  6E0A               	movwf	led_turn_off@led^0,c
  6346   002AE4  0E00               	movlw	high _led2
  6347   002AE6  6E0B               	movwf	(led_turn_off@led+1)^0,c
  6348   002AE8  EC77  F017         	call	_led_turn_off	;wreg free
  6349   002AEC  0E1B               	movlw	low STR_7
  6350   002AEE  6E02               	movwf	USART_Asynchronous_WriteString_Blocking@_data^0,c
  6351   002AF0  0E10               	movlw	high STR_7
  6352   002AF2  6E03               	movwf	(USART_Asynchronous_WriteString_Blocking@_data+1)^0,c
  6353   002AF4  0E00               	movlw	0
  6354   002AF6  6E05               	movwf	(USART_Asynchronous_WriteString_Blocking@str_length+1)^0,c
  6355   002AF8  0E09               	movlw	9
  6356   002AFA  6E04               	movwf	USART_Asynchronous_WriteString_Blocking@str_length^0,c
  6357   002AFC  EC86  F018         	call	_USART_Asynchronous_WriteString_Blocking	;wreg free
  6358                           
  6359                           ;application.c: 79:         break;
  6360   002B00  EFAD  F015         	goto	i2l1603
  6361   002B04                     i2l6304:
  6362   002B04  0E65               	movlw	low _led1
  6363   002B06  6E0A               	movwf	led_turn_off@led^0,c
  6364   002B08  0E00               	movlw	high _led1
  6365   002B0A  6E0B               	movwf	(led_turn_off@led+1)^0,c
  6366   002B0C  EC77  F017         	call	_led_turn_off	;wreg free
  6367                           
  6368                           ;application.c: 81:                   led_turn_off(&led2);
  6369   002B10  0E64               	movlw	low _led2
  6370   002B12  6E0A               	movwf	led_turn_off@led^0,c
  6371   002B14  0E00               	movlw	high _led2
  6372   002B16  6E0B               	movwf	(led_turn_off@led+1)^0,c
  6373   002B18  EC77  F017         	call	_led_turn_off	;wreg free
  6374                           
  6375                           ;application.c: 82:     }
  6376   002B1C  EFAD  F015         	goto	i2l1603
  6377   002B20                     i2l6306:
  6378   002B20  505F               	movf	_receive_usart_data^0,w,c
  6379   002B22  6E0E               	movwf	??_USART_RxDefaultInterruptHandler^0,c
  6380   002B24  6A0F               	clrf	(??_USART_RxDefaultInterruptHandler+1)^0,c
  6381                           
  6382                           ; Switch on 2 bytes has been partitioned into a top level switch of size 1, and 1 sub-sw
      +                          itches
  6383                           ; Switch size 1, requested type "simple"
  6384                           ; Number of cases is 1, Range of values is 0 to 0
  6385                           ; switch strategies available:
  6386                           ; Name         Instructions Cycles
  6387                           ; simple_byte            4     3 (average)
  6388                           ;	Chosen strategy is simple_byte
  6389   002B26  500F               	movf	(??_USART_RxDefaultInterruptHandler+1)^0,w,c
  6390   002B28  0A00               	xorlw	0	; case 0
  6391   002B2A  B4D8               	btfsc	status,2,c
  6392   002B2C  EF9A  F015         	goto	i2l8584
  6393   002B30  EF82  F015         	goto	i2l6304
  6394   002B34                     i2l8584:
  6395                           
  6396                           ; Switch size 1, requested type "simple"
  6397                           ; Number of cases is 4, Range of values is 97 to 100
  6398                           ; switch strategies available:
  6399                           ; Name         Instructions Cycles
  6400                           ; simple_byte           13     7 (average)
  6401                           ;	Chosen strategy is simple_byte
  6402   002B34  500E               	movf	??_USART_RxDefaultInterruptHandler^0,w,c
  6403   002B36  0A61               	xorlw	97	; case 97
  6404   002B38  B4D8               	btfsc	status,2,c
  6405   002B3A  EF3A  F015         	goto	i2l6288
  6406   002B3E  0A03               	xorlw	3	; case 98
  6407   002B40  B4D8               	btfsc	status,2,c
  6408   002B42  EF4C  F015         	goto	i2l6292
  6409   002B46  0A01               	xorlw	1	; case 99
  6410   002B48  B4D8               	btfsc	status,2,c
  6411   002B4A  EF5E  F015         	goto	i2l6296
  6412   002B4E  0A07               	xorlw	7	; case 100
  6413   002B50  B4D8               	btfsc	status,2,c
  6414   002B52  EF70  F015         	goto	i2l6300
  6415   002B56  EF82  F015         	goto	i2l6304
  6416   002B5A                     i2l1603:
  6417   002B5A  0012               	return		;funcret
  6418   002B5C                     __end_of_USART_RxDefaultInterruptHandler:
  6419                           	callstack 0
  6420                           
  6421 ;; *************** function _led_turn_on *****************
  6422 ;; Defined at:
  6423 ;;		line 43 in file "ECU_Layer/LED/ecu_led.c"
  6424 ;; Parameters:    Size  Location     Type
  6425 ;;  led             2    9[COMRAM] PTR const struct .
  6426 ;;		 -> led2(1), led1(1), 
  6427 ;; Auto vars:     Size  Location     Type
  6428 ;;  pin_obj         1   12[COMRAM] struct .
  6429 ;;  ret             1    0        unsigned char 
  6430 ;; Return value:  Size  Location     Type
  6431 ;;                  1    wreg      unsigned char 
  6432 ;; Registers used:
  6433 ;;		wreg, fsr2l, fsr2h, status,2, status,0, prodl, prodh, cstack
  6434 ;; Tracked objects:
  6435 ;;		On entry : 0/0
  6436 ;;		On exit  : 0/0
  6437 ;;		Unchanged: 0/0
  6438 ;; Data sizes:     COMRAM   BANK0   BANK1   BANK2   BANK3   BANK4   BANK5   BANK6   BANK7   BANK8   BANK9  BANK10  BANK1
      +1  BANK12  BANK13  BANK14  BANK15
  6439 ;;      Params:         2       0       0       0       0       0       0       0       0       0       0       0       
      +0       0       0       0       0
  6440 ;;      Locals:         1       0       0       0       0       0       0       0       0       0       0       0       
      +0       0       0       0       0
  6441 ;;      Temps:          1       0       0       0       0       0       0       0       0       0       0       0       
      +0       0       0       0       0
  6442 ;;      Totals:         4       0       0       0       0       0       0       0       0       0       0       0       
      +0       0       0       0       0
  6443 ;;Total ram usage:        4 bytes
  6444 ;; Hardware stack levels used: 1
  6445 ;; Hardware stack levels required when called: 1
  6446 ;; This function calls:
  6447 ;;		i2_gpio_pin_write_logic
  6448 ;; This function is called by:
  6449 ;;		_USART_RxDefaultInterruptHandler
  6450 ;; This function uses a non-reentrant model
  6451 ;;
  6452                           
  6453                           	psect	text28
  6454   002E78                     __ptext28:
  6455                           	callstack 0
  6456   002E78                     _led_turn_on:
  6457                           	callstack 20
  6458   002E78                     
  6459                           ;ECU_Layer/LED/ecu_led.c: 46:      if(((void*)0) == led)
  6460   002E78  500A               	movf	led_turn_on@led^0,w,c
  6461   002E7A  100B               	iorwf	(led_turn_on@led+1)^0,w,c
  6462   002E7C  A4D8               	btfss	status,2,c
  6463   002E7E  EF43  F017         	goto	i2u499_41
  6464   002E82  EF45  F017         	goto	i2u499_40
  6465   002E86                     i2u499_41:
  6466   002E86  EF47  F017         	goto	i2l277
  6467   002E8A                     i2u499_40:
  6468   002E8A                     
  6469                           ;ECU_Layer/LED/ecu_led.c: 49:      }
  6470   002E8A  EF76  F017         	goto	i2l281
  6471   002E8E                     i2l277:
  6472                           
  6473                           ;ECU_Layer/LED/ecu_led.c: 51:      {;ECU_Layer/LED/ecu_led.c: 52:         pin_config_t p
      +                          in_obj = { .port = led->port_name, .pin = led->pin, .direction = GPIO_DIRECTION_OUTPUT,.
      +                          logic = led->led_status };
  6474   002E8E  C05D  F00D         	movff	led_turn_on@F3053,led_turn_on@pin_obj
  6475   002E92  C00A  FFD9         	movff	led_turn_on@led,fsr2l
  6476   002E96  C00B  FFDA         	movff	led_turn_on@led+1,fsr2h
  6477   002E9A  50DF               	movf	223,w,c
  6478   002E9C  0B0F               	andlw	15
  6479   002E9E  6E0C               	movwf	??_led_turn_on^0,c
  6480   002EA0  500D               	movf	led_turn_on@pin_obj^0,w,c
  6481   002EA2  180C               	xorwf	??_led_turn_on^0,w,c
  6482   002EA4  0BF8               	andlw	-8
  6483   002EA6  180C               	xorwf	??_led_turn_on^0,w,c
  6484   002EA8  6E0D               	movwf	led_turn_on@pin_obj^0,c
  6485   002EAA  C00A  FFD9         	movff	led_turn_on@led,fsr2l
  6486   002EAE  C00B  FFDA         	movff	led_turn_on@led+1,fsr2h
  6487   002EB2  38DF               	swapf	223,w,c
  6488   002EB4  0B07               	andlw	7
  6489   002EB6  6E0C               	movwf	??_led_turn_on^0,c
  6490   002EB8  460C               	rlncf	??_led_turn_on^0,f,c
  6491   002EBA  460C               	rlncf	??_led_turn_on^0,f,c
  6492   002EBC  460C               	rlncf	??_led_turn_on^0,f,c
  6493   002EBE  500D               	movf	led_turn_on@pin_obj^0,w,c
  6494   002EC0  180C               	xorwf	??_led_turn_on^0,w,c
  6495   002EC2  0BC7               	andlw	-57
  6496   002EC4  180C               	xorwf	??_led_turn_on^0,w,c
  6497   002EC6  6E0D               	movwf	led_turn_on@pin_obj^0,c
  6498   002EC8  9C0D               	bcf	led_turn_on@pin_obj^0,6,c
  6499   002ECA  C00A  FFD9         	movff	led_turn_on@led,fsr2l
  6500   002ECE  C00B  FFDA         	movff	led_turn_on@led+1,fsr2h
  6501   002ED2  AEDF               	btfss	indf2,7,c
  6502   002ED4  D002               	bra	i2u500_45
  6503   002ED6  8E0D               	bsf	led_turn_on@pin_obj^0,7,c
  6504   002ED8  D001               	bra	i2u500_47
  6505   002EDA                     i2u500_45:
  6506   002EDA  9E0D               	bcf	led_turn_on@pin_obj^0,7,c
  6507   002EDC                     i2u500_47:
  6508   002EDC                     
  6509                           ;ECU_Layer/LED/ecu_led.c: 53:         gpio_pin_write_logic(&pin_obj, GPIO_HIGH);
  6510   002EDC  0E0D               	movlw	low led_turn_on@pin_obj
  6511   002EDE  6E01               	movwf	i2gpio_pin_write_logic@_pin_config^0,c
  6512   002EE0  0E00               	movlw	high led_turn_on@pin_obj
  6513   002EE2  6E02               	movwf	(i2gpio_pin_write_logic@_pin_config+1)^0,c
  6514   002EE4  0E01               	movlw	1
  6515   002EE6  6E03               	movwf	i2gpio_pin_write_logic@logic^0,c
  6516   002EE8  EC17  F014         	call	i2_gpio_pin_write_logic	;wreg free
  6517   002EEC                     i2l281:
  6518   002EEC  0012               	return		;funcret
  6519   002EEE                     __end_of_led_turn_on:
  6520                           	callstack 0
  6521                           
  6522 ;; *************** function _led_turn_off *****************
  6523 ;; Defined at:
  6524 ;;		line 65 in file "ECU_Layer/LED/ecu_led.c"
  6525 ;; Parameters:    Size  Location     Type
  6526 ;;  led             2    9[COMRAM] PTR const struct .
  6527 ;;		 -> led2(1), led1(1), 
  6528 ;; Auto vars:     Size  Location     Type
  6529 ;;  pin_obj         1   12[COMRAM] struct .
  6530 ;;  ret             1    0        unsigned char 
  6531 ;; Return value:  Size  Location     Type
  6532 ;;                  1    wreg      unsigned char 
  6533 ;; Registers used:
  6534 ;;		wreg, fsr2l, fsr2h, status,2, status,0, prodl, prodh, cstack
  6535 ;; Tracked objects:
  6536 ;;		On entry : 0/0
  6537 ;;		On exit  : 0/0
  6538 ;;		Unchanged: 0/0
  6539 ;; Data sizes:     COMRAM   BANK0   BANK1   BANK2   BANK3   BANK4   BANK5   BANK6   BANK7   BANK8   BANK9  BANK10  BANK1
      +1  BANK12  BANK13  BANK14  BANK15
  6540 ;;      Params:         2       0       0       0       0       0       0       0       0       0       0       0       
      +0       0       0       0       0
  6541 ;;      Locals:         1       0       0       0       0       0       0       0       0       0       0       0       
      +0       0       0       0       0
  6542 ;;      Temps:          1       0       0       0       0       0       0       0       0       0       0       0       
      +0       0       0       0       0
  6543 ;;      Totals:         4       0       0       0       0       0       0       0       0       0       0       0       
      +0       0       0       0       0
  6544 ;;Total ram usage:        4 bytes
  6545 ;; Hardware stack levels used: 1
  6546 ;; Hardware stack levels required when called: 1
  6547 ;; This function calls:
  6548 ;;		i2_gpio_pin_write_logic
  6549 ;; This function is called by:
  6550 ;;		_USART_RxDefaultInterruptHandler
  6551 ;; This function uses a non-reentrant model
  6552 ;;
  6553                           
  6554                           	psect	text29
  6555   002EEE                     __ptext29:
  6556                           	callstack 0
  6557   002EEE                     _led_turn_off:
  6558                           	callstack 20
  6559   002EEE                     
  6560                           ;ECU_Layer/LED/ecu_led.c: 68:      if(((void*)0) == led)
  6561   002EEE  500A               	movf	led_turn_off@led^0,w,c
  6562   002EF0  100B               	iorwf	(led_turn_off@led+1)^0,w,c
  6563   002EF2  A4D8               	btfss	status,2,c
  6564   002EF4  EF7E  F017         	goto	i2u501_41
  6565   002EF8  EF80  F017         	goto	i2u501_40
  6566   002EFC                     i2u501_41:
  6567   002EFC  EF82  F017         	goto	i2l284
  6568   002F00                     i2u501_40:
  6569   002F00                     
  6570                           ;ECU_Layer/LED/ecu_led.c: 71:      }
  6571   002F00  EFB1  F017         	goto	i2l288
  6572   002F04                     i2l284:
  6573                           
  6574                           ;ECU_Layer/LED/ecu_led.c: 73:      {;ECU_Layer/LED/ecu_led.c: 74:         pin_config_t p
      +                          in_obj = { .port = led->port_name, .pin = led->pin, .direction = GPIO_DIRECTION_OUTPUT,.
      +                          logic = led->led_status };
  6575   002F04  C05C  F00D         	movff	led_turn_off@F3058,led_turn_off@pin_obj
  6576   002F08  C00A  FFD9         	movff	led_turn_off@led,fsr2l
  6577   002F0C  C00B  FFDA         	movff	led_turn_off@led+1,fsr2h
  6578   002F10  50DF               	movf	223,w,c
  6579   002F12  0B0F               	andlw	15
  6580   002F14  6E0C               	movwf	??_led_turn_off^0,c
  6581   002F16  500D               	movf	led_turn_off@pin_obj^0,w,c
  6582   002F18  180C               	xorwf	??_led_turn_off^0,w,c
  6583   002F1A  0BF8               	andlw	-8
  6584   002F1C  180C               	xorwf	??_led_turn_off^0,w,c
  6585   002F1E  6E0D               	movwf	led_turn_off@pin_obj^0,c
  6586   002F20  C00A  FFD9         	movff	led_turn_off@led,fsr2l
  6587   002F24  C00B  FFDA         	movff	led_turn_off@led+1,fsr2h
  6588   002F28  38DF               	swapf	223,w,c
  6589   002F2A  0B07               	andlw	7
  6590   002F2C  6E0C               	movwf	??_led_turn_off^0,c
  6591   002F2E  460C               	rlncf	??_led_turn_off^0,f,c
  6592   002F30  460C               	rlncf	??_led_turn_off^0,f,c
  6593   002F32  460C               	rlncf	??_led_turn_off^0,f,c
  6594   002F34  500D               	movf	led_turn_off@pin_obj^0,w,c
  6595   002F36  180C               	xorwf	??_led_turn_off^0,w,c
  6596   002F38  0BC7               	andlw	-57
  6597   002F3A  180C               	xorwf	??_led_turn_off^0,w,c
  6598   002F3C  6E0D               	movwf	led_turn_off@pin_obj^0,c
  6599   002F3E  9C0D               	bcf	led_turn_off@pin_obj^0,6,c
  6600   002F40  C00A  FFD9         	movff	led_turn_off@led,fsr2l
  6601   002F44  C00B  FFDA         	movff	led_turn_off@led+1,fsr2h
  6602   002F48  AEDF               	btfss	indf2,7,c
  6603   002F4A  D002               	bra	i2u502_45
  6604   002F4C  8E0D               	bsf	led_turn_off@pin_obj^0,7,c
  6605   002F4E  D001               	bra	i2u502_47
  6606   002F50                     i2u502_45:
  6607   002F50  9E0D               	bcf	led_turn_off@pin_obj^0,7,c
  6608   002F52                     i2u502_47:
  6609   002F52                     
  6610                           ;ECU_Layer/LED/ecu_led.c: 75:         gpio_pin_write_logic(&pin_obj, GPIO_LOW);
  6611   002F52  0E0D               	movlw	low led_turn_off@pin_obj
  6612   002F54  6E01               	movwf	i2gpio_pin_write_logic@_pin_config^0,c
  6613   002F56  0E00               	movlw	high led_turn_off@pin_obj
  6614   002F58  6E02               	movwf	(i2gpio_pin_write_logic@_pin_config+1)^0,c
  6615   002F5A  0E00               	movlw	0
  6616   002F5C  6E03               	movwf	i2gpio_pin_write_logic@logic^0,c
  6617   002F5E  EC17  F014         	call	i2_gpio_pin_write_logic	;wreg free
  6618   002F62                     i2l288:
  6619   002F62  0012               	return		;funcret
  6620   002F64                     __end_of_led_turn_off:
  6621                           	callstack 0
  6622                           
  6623 ;; *************** function i2_gpio_pin_write_logic *****************
  6624 ;; Defined at:
  6625 ;;		line 88 in file "MCAL_Layer/GPIO/hal_gpio.c"
  6626 ;; Parameters:    Size  Location     Type
  6627 ;;  _pin_config     2    0[COMRAM] PTR const struct .
  6628 ;;		 -> lcd_2(10), lcd_1(6), relay_turn_off@pin_obj(1), relay_turn_on@pin_obj(1), 
  6629 ;;		 -> relay_initialize@pin_obj(1), led_turn_off@pin_obj(1), led_turn_on@pin_obj(1), led_initialize@pin_obj(1), 
  6630 ;;  logic           1    2[COMRAM] enum E2968
  6631 ;; Auto vars:     Size  Location     Type
  6632 ;;  ret             1    0        unsigned char 
  6633 ;; Return value:  Size  Location     Type
  6634 ;;                  1    wreg      unsigned char 
  6635 ;; Registers used:
  6636 ;;		wreg, fsr2l, fsr2h, status,2, status,0, prodl, prodh
  6637 ;; Tracked objects:
  6638 ;;		On entry : 0/0
  6639 ;;		On exit  : 0/0
  6640 ;;		Unchanged: 0/0
  6641 ;; Data sizes:     COMRAM   BANK0   BANK1   BANK2   BANK3   BANK4   BANK5   BANK6   BANK7   BANK8   BANK9  BANK10  BANK1
      +1  BANK12  BANK13  BANK14  BANK15
  6642 ;;      Params:         3       0       0       0       0       0       0       0       0       0       0       0       
      +0       0       0       0       0
  6643 ;;      Locals:         0       0       0       0       0       0       0       0       0       0       0       0       
      +0       0       0       0       0
  6644 ;;      Temps:          6       0       0       0       0       0       0       0       0       0       0       0       
      +0       0       0       0       0
  6645 ;;      Totals:         9       0       0       0       0       0       0       0       0       0       0       0       
      +0       0       0       0       0
  6646 ;;Total ram usage:        9 bytes
  6647 ;; Hardware stack levels used: 1
  6648 ;; This function calls:
  6649 ;;		Nothing
  6650 ;; This function is called by:
  6651 ;;		_led_turn_on
  6652 ;;		_led_turn_off
  6653 ;; This function uses a non-reentrant model
  6654 ;;
  6655                           
  6656                           	psect	text30
  6657   00282E                     __ptext30:
  6658                           	callstack 0
  6659   00282E                     i2_gpio_pin_write_logic:
  6660                           	callstack 20
  6661   00282E                     
  6662                           ;MCAL_Layer/GPIO/hal_gpio.c: 91:     if(((void*)0) == _pin_config || _pin_config->pin > 
      +                          8 -1)
  6663   00282E  5001               	movf	i2gpio_pin_write_logic@_pin_config^0,w,c
  6664   002830  1002               	iorwf	(i2gpio_pin_write_logic@_pin_config+1)^0,w,c
  6665   002832  B4D8               	btfsc	status,2,c
  6666   002834  EF1E  F014         	goto	i2u491_41
  6667   002838  EF20  F014         	goto	i2u491_40
  6668   00283C                     i2u491_41:
  6669   00283C  EF31  F014         	goto	i2l5982
  6670   002840                     i2u491_40:
  6671   002840  C001  FFD9         	movff	i2gpio_pin_write_logic@_pin_config,fsr2l
  6672   002844  C002  FFDA         	movff	i2gpio_pin_write_logic@_pin_config+1,fsr2h
  6673   002848  30DF               	rrcf	223,w,c
  6674   00284A  32E8               	rrcf	wreg,f,c
  6675   00284C  32E8               	rrcf	wreg,f,c
  6676   00284E  0B07               	andlw	7
  6677   002850  6E04               	movwf	??i2_gpio_pin_write_logic^0,c
  6678   002852  0E07               	movlw	7
  6679   002854  6404               	cpfsgt	??i2_gpio_pin_write_logic^0,c
  6680   002856  EF2F  F014         	goto	i2u492_41
  6681   00285A  EF31  F014         	goto	i2u492_40
  6682   00285E                     i2u492_41:
  6683   00285E  EF92  F014         	goto	i2l5990
  6684   002862                     i2u492_40:
  6685   002862                     i2l5982:
  6686                           
  6687                           ;MCAL_Layer/GPIO/hal_gpio.c: 94:     }
  6688   002862  EFA7  F014         	goto	i2l692
  6689   002866                     i2l5984:
  6690                           
  6691                           ;MCAL_Layer/GPIO/hal_gpio.c: 100:                 (*lat_registers[_pin_config->port] &= 
      +                          ~((uint8)1 << _pin_config->pin));
  6692   002866  C001  FFD9         	movff	i2gpio_pin_write_logic@_pin_config,fsr2l
  6693   00286A  C002  FFDA         	movff	i2gpio_pin_write_logic@_pin_config+1,fsr2h
  6694   00286E  30DF               	rrcf	223,w,c
  6695   002870  32E8               	rrcf	wreg,f,c
  6696   002872  32E8               	rrcf	wreg,f,c
  6697   002874  0B07               	andlw	7
  6698   002876  6E04               	movwf	??i2_gpio_pin_write_logic^0,c
  6699   002878  0E01               	movlw	1
  6700   00287A  6E05               	movwf	(??i2_gpio_pin_write_logic+1)^0,c
  6701   00287C  2A04               	incf	??i2_gpio_pin_write_logic^0,f,c
  6702   00287E  EF43  F014         	goto	i2u493_44
  6703   002882                     i2u493_45:
  6704   002882  90D8               	bcf	status,0,c
  6705   002884  3605               	rlcf	(??i2_gpio_pin_write_logic+1)^0,f,c
  6706   002886                     i2u493_44:
  6707   002886  2E04               	decfsz	??i2_gpio_pin_write_logic^0,f,c
  6708   002888  EF41  F014         	goto	i2u493_45
  6709   00288C  5005               	movf	(??i2_gpio_pin_write_logic+1)^0,w,c
  6710   00288E  0AFF               	xorlw	255
  6711   002890  6E06               	movwf	(??i2_gpio_pin_write_logic+2)^0,c
  6712   002892  C001  FFD9         	movff	i2gpio_pin_write_logic@_pin_config,fsr2l
  6713   002896  C002  FFDA         	movff	i2gpio_pin_write_logic@_pin_config+1,fsr2h
  6714   00289A  50DF               	movf	223,w,c
  6715   00289C  0B07               	andlw	7
  6716   00289E  6E07               	movwf	(??i2_gpio_pin_write_logic+3)^0,c
  6717   0028A0  5007               	movf	(??i2_gpio_pin_write_logic+3)^0,w,c
  6718   0028A2  0D02               	mullw	2
  6719   0028A4  0EC2               	movlw	low _lat_registers
  6720   0028A6  24F3               	addwf	243,w,c
  6721   0028A8  6ED9               	movwf	fsr2l,c
  6722   0028AA  0E00               	movlw	high _lat_registers
  6723   0028AC  20F4               	addwfc	prodh,w,c
  6724   0028AE  6EDA               	movwf	fsr2h,c
  6725   0028B0  CFDE F008          	movff	postinc2,??i2_gpio_pin_write_logic+4
  6726   0028B4  CFDD F009          	movff	postdec2,??i2_gpio_pin_write_logic+5
  6727   0028B8  C008  FFD9         	movff	??i2_gpio_pin_write_logic+4,fsr2l
  6728   0028BC  C009  FFDA         	movff	??i2_gpio_pin_write_logic+5,fsr2h
  6729   0028C0  5006               	movf	(??i2_gpio_pin_write_logic+2)^0,w,c
  6730   0028C2  16DF               	andwf	indf2,f,c
  6731                           
  6732                           ;MCAL_Layer/GPIO/hal_gpio.c: 101:                 break;
  6733   0028C4  EFA7  F014         	goto	i2l692
  6734   0028C8                     i2l5986:
  6735                           
  6736                           ;MCAL_Layer/GPIO/hal_gpio.c: 103:                 (*lat_registers[_pin_config->port] |= 
      +                          ((uint8)1 << _pin_config->pin));
  6737   0028C8  C001  FFD9         	movff	i2gpio_pin_write_logic@_pin_config,fsr2l
  6738   0028CC  C002  FFDA         	movff	i2gpio_pin_write_logic@_pin_config+1,fsr2h
  6739   0028D0  30DF               	rrcf	223,w,c
  6740   0028D2  32E8               	rrcf	wreg,f,c
  6741   0028D4  32E8               	rrcf	wreg,f,c
  6742   0028D6  0B07               	andlw	7
  6743   0028D8  6E04               	movwf	??i2_gpio_pin_write_logic^0,c
  6744   0028DA  0E01               	movlw	1
  6745   0028DC  6E05               	movwf	(??i2_gpio_pin_write_logic+1)^0,c
  6746   0028DE  2A04               	incf	??i2_gpio_pin_write_logic^0,f,c
  6747   0028E0  EF74  F014         	goto	i2u494_44
  6748   0028E4                     i2u494_45:
  6749   0028E4  90D8               	bcf	status,0,c
  6750   0028E6  3605               	rlcf	(??i2_gpio_pin_write_logic+1)^0,f,c
  6751   0028E8                     i2u494_44:
  6752   0028E8  2E04               	decfsz	??i2_gpio_pin_write_logic^0,f,c
  6753   0028EA  EF72  F014         	goto	i2u494_45
  6754   0028EE  C001  FFD9         	movff	i2gpio_pin_write_logic@_pin_config,fsr2l
  6755   0028F2  C002  FFDA         	movff	i2gpio_pin_write_logic@_pin_config+1,fsr2h
  6756   0028F6  50DF               	movf	223,w,c
  6757   0028F8  0B07               	andlw	7
  6758   0028FA  6E06               	movwf	(??i2_gpio_pin_write_logic+2)^0,c
  6759   0028FC  5006               	movf	(??i2_gpio_pin_write_logic+2)^0,w,c
  6760   0028FE  0D02               	mullw	2
  6761   002900  0EC2               	movlw	low _lat_registers
  6762   002902  24F3               	addwf	243,w,c
  6763   002904  6ED9               	movwf	fsr2l,c
  6764   002906  0E00               	movlw	high _lat_registers
  6765   002908  20F4               	addwfc	prodh,w,c
  6766   00290A  6EDA               	movwf	fsr2h,c
  6767   00290C  CFDE F007          	movff	postinc2,??i2_gpio_pin_write_logic+3
  6768   002910  CFDD F008          	movff	postdec2,??i2_gpio_pin_write_logic+4
  6769   002914  C007  FFD9         	movff	??i2_gpio_pin_write_logic+3,fsr2l
  6770   002918  C008  FFDA         	movff	??i2_gpio_pin_write_logic+4,fsr2h
  6771   00291C  5005               	movf	(??i2_gpio_pin_write_logic+1)^0,w,c
  6772   00291E  12DF               	iorwf	indf2,f,c
  6773                           
  6774                           ;MCAL_Layer/GPIO/hal_gpio.c: 104:                 break;
  6775   002920  EFA7  F014         	goto	i2l692
  6776   002924                     i2l5990:
  6777   002924  5003               	movf	i2gpio_pin_write_logic@logic^0,w,c
  6778   002926  6E04               	movwf	??i2_gpio_pin_write_logic^0,c
  6779   002928  6A05               	clrf	(??i2_gpio_pin_write_logic+1)^0,c
  6780                           
  6781                           ; Switch on 2 bytes has been partitioned into a top level switch of size 1, and 1 sub-sw
      +                          itches
  6782                           ; Switch size 1, requested type "simple"
  6783                           ; Number of cases is 1, Range of values is 0 to 0
  6784                           ; switch strategies available:
  6785                           ; Name         Instructions Cycles
  6786                           ; simple_byte            4     3 (average)
  6787                           ;	Chosen strategy is simple_byte
  6788   00292A  5005               	movf	(??i2_gpio_pin_write_logic+1)^0,w,c
  6789   00292C  0A00               	xorlw	0	; case 0
  6790   00292E  B4D8               	btfsc	status,2,c
  6791   002930  EF9C  F014         	goto	i2l8586
  6792   002934  EF31  F014         	goto	i2l5982
  6793   002938                     i2l8586:
  6794                           
  6795                           ; Switch size 1, requested type "simple"
  6796                           ; Number of cases is 2, Range of values is 0 to 1
  6797                           ; switch strategies available:
  6798                           ; Name         Instructions Cycles
  6799                           ; simple_byte            7     4 (average)
  6800                           ;	Chosen strategy is simple_byte
  6801   002938  5004               	movf	??i2_gpio_pin_write_logic^0,w,c
  6802   00293A  0A00               	xorlw	0	; case 0
  6803   00293C  B4D8               	btfsc	status,2,c
  6804   00293E  EF33  F014         	goto	i2l5984
  6805   002942  0A01               	xorlw	1	; case 1
  6806   002944  B4D8               	btfsc	status,2,c
  6807   002946  EF64  F014         	goto	i2l5986
  6808   00294A  EF31  F014         	goto	i2l5982
  6809   00294E                     i2l692:
  6810   00294E  0012               	return		;funcret
  6811   002950                     __end_ofi2_gpio_pin_write_logic:
  6812                           	callstack 0
  6813                           
  6814 ;; *************** function _USART_Asynchronous_WriteString_Blocking *****************
  6815 ;; Defined at:
  6816 ;;		line 214 in file "MCAL_Layer/USART/hal_usart.c"
  6817 ;; Parameters:    Size  Location     Type
  6818 ;;  _data           2    1[COMRAM] PTR unsigned char 
  6819 ;;		 -> STR_7(10), STR_6(9), STR_5(10), STR_4(9), 
  6820 ;;  str_length      2    3[COMRAM] unsigned short 
  6821 ;; Auto vars:     Size  Location     Type
  6822 ;;  char_counter    2    8[COMRAM] unsigned short 
  6823 ;;  ret             1    7[COMRAM] unsigned char 
  6824 ;; Return value:  Size  Location     Type
  6825 ;;                  1    wreg      unsigned char 
  6826 ;; Registers used:
  6827 ;;		wreg, status,2, status,0, tblptrl, tblptrh, tblptru, cstack
  6828 ;; Tracked objects:
  6829 ;;		On entry : 0/0
  6830 ;;		On exit  : 0/0
  6831 ;;		Unchanged: 0/0
  6832 ;; Data sizes:     COMRAM   BANK0   BANK1   BANK2   BANK3   BANK4   BANK5   BANK6   BANK7   BANK8   BANK9  BANK10  BANK1
      +1  BANK12  BANK13  BANK14  BANK15
  6833 ;;      Params:         4       0       0       0       0       0       0       0       0       0       0       0       
      +0       0       0       0       0
  6834 ;;      Locals:         3       0       0       0       0       0       0       0       0       0       0       0       
      +0       0       0       0       0
  6835 ;;      Temps:          2       0       0       0       0       0       0       0       0       0       0       0       
      +0       0       0       0       0
  6836 ;;      Totals:         9       0       0       0       0       0       0       0       0       0       0       0       
      +0       0       0       0       0
  6837 ;;Total ram usage:        9 bytes
  6838 ;; Hardware stack levels used: 1
  6839 ;; Hardware stack levels required when called: 1
  6840 ;; This function calls:
  6841 ;;		_USART_Asynchronous_WriteByte_Blocking
  6842 ;; This function is called by:
  6843 ;;		_USART_RxDefaultInterruptHandler
  6844 ;; This function uses a non-reentrant model
  6845 ;;
  6846                           
  6847                           	psect	text31
  6848   00310C                     __ptext31:
  6849                           	callstack 0
  6850   00310C                     _USART_Asynchronous_WriteString_Blocking:
  6851                           	callstack 20
  6852   00310C                     
  6853                           ;MCAL_Layer/USART/hal_usart.c: 214: Std_ReturnType USART_Asynchronous_WriteString_Blocki
      +                          ng(uint8 *_data, uint16 str_length);MCAL_Layer/USART/hal_usart.c: 215: {;MCAL_Layer/USAR
      +                          T/hal_usart.c: 216:     Std_ReturnType ret = (Std_ReturnType)0x00;
  6854   00310C  0E00               	movlw	0
  6855   00310E  6E08               	movwf	USART_Asynchronous_WriteString_Blocking@ret^0,c
  6856                           
  6857                           ;MCAL_Layer/USART/hal_usart.c: 217:     uint16 char_counter = 0;
  6858   003110  0E00               	movlw	0
  6859   003112  6E0A               	movwf	(USART_Asynchronous_WriteString_Blocking@char_counter+1)^0,c
  6860   003114  0E00               	movlw	0
  6861   003116  6E09               	movwf	USART_Asynchronous_WriteString_Blocking@char_counter^0,c
  6862                           
  6863                           ;MCAL_Layer/USART/hal_usart.c: 218:     for(char_counter = 0; char_counter < str_length;
      +                           char_counter++)
  6864   003118  0E00               	movlw	0
  6865   00311A  6E0A               	movwf	(USART_Asynchronous_WriteString_Blocking@char_counter+1)^0,c
  6866   00311C  0E00               	movlw	0
  6867   00311E  6E09               	movwf	USART_Asynchronous_WriteString_Blocking@char_counter^0,c
  6868   003120  EFA4  F018         	goto	i2l6212
  6869   003124                     i2l6208:
  6870                           
  6871                           ;MCAL_Layer/USART/hal_usart.c: 219:     {;MCAL_Layer/USART/hal_usart.c: 220:         ret
      +                           = USART_Asynchronous_WriteByte_Blocking(_data[char_counter]);
  6872   003124  5009               	movf	USART_Asynchronous_WriteString_Blocking@char_counter^0,w,c
  6873   003126  2402               	addwf	USART_Asynchronous_WriteString_Blocking@_data^0,w,c
  6874   003128  6E06               	movwf	??_USART_Asynchronous_WriteString_Blocking^0,c
  6875   00312A  500A               	movf	(USART_Asynchronous_WriteString_Blocking@char_counter+1)^0,w,c
  6876   00312C  2003               	addwfc	(USART_Asynchronous_WriteString_Blocking@_data+1)^0,w,c
  6877   00312E  6E07               	movwf	(??_USART_Asynchronous_WriteString_Blocking+1)^0,c
  6878   003130  C006  FFF6         	movff	??_USART_Asynchronous_WriteString_Blocking,tblptrl
  6879   003134  C007  FFF7         	movff	??_USART_Asynchronous_WriteString_Blocking+1,tblptrh
  6880   003138                     	if	1	;Program memory is < 0x10000, tblptru is always zero
  6881   003138  6AF8               	clrf	tblptru,c
  6882   00313A                     	endif
  6883   00313A                     	if	0	;tblptru may be non-zero
  6884   00313A                     	endif
  6885   00313A  0008               	tblrd		*
  6886   00313C  50F5               	movf	tablat,w,c
  6887   00313E  EC9D  F019         	call	_USART_Asynchronous_WriteByte_Blocking
  6888   003142  6E08               	movwf	USART_Asynchronous_WriteString_Blocking@ret^0,c
  6889   003144                     
  6890                           ;MCAL_Layer/USART/hal_usart.c: 221:     }
  6891   003144  4A09               	infsnz	USART_Asynchronous_WriteString_Blocking@char_counter^0,f,c
  6892   003146  2A0A               	incf	(USART_Asynchronous_WriteString_Blocking@char_counter+1)^0,f,c
  6893   003148                     i2l6212:
  6894   003148  5004               	movf	USART_Asynchronous_WriteString_Blocking@str_length^0,w,c
  6895   00314A  5C09               	subwf	USART_Asynchronous_WriteString_Blocking@char_counter^0,w,c
  6896   00314C  5005               	movf	(USART_Asynchronous_WriteString_Blocking@str_length+1)^0,w,c
  6897   00314E  580A               	subwfb	(USART_Asynchronous_WriteString_Blocking@char_counter+1)^0,w,c
  6898   003150  A0D8               	btfss	status,0,c
  6899   003152  EFAD  F018         	goto	i2u514_41
  6900   003156  EFAF  F018         	goto	i2u514_40
  6901   00315A                     i2u514_41:
  6902   00315A  EF92  F018         	goto	i2l6208
  6903   00315E                     i2u514_40:
  6904   00315E                     
  6905                           ;MCAL_Layer/USART/hal_usart.c: 222:     return ret;
  6906   00315E  5008               	movf	USART_Asynchronous_WriteString_Blocking@ret^0,w,c
  6907   003160  0012               	return		;funcret
  6908   003162                     __end_of_USART_Asynchronous_WriteString_Blocking:
  6909                           	callstack 0
  6910                           
  6911 ;; *************** function _USART_Asynchronous_WriteByte_Blocking *****************
  6912 ;; Defined at:
  6913 ;;		line 167 in file "MCAL_Layer/USART/hal_usart.c"
  6914 ;; Parameters:    Size  Location     Type
  6915 ;;  _data           1    wreg     unsigned char 
  6916 ;; Auto vars:     Size  Location     Type
  6917 ;;  _data           1    0[COMRAM] unsigned char 
  6918 ;;  ret             1    0        unsigned char 
  6919 ;; Return value:  Size  Location     Type
  6920 ;;                  1    wreg      unsigned char 
  6921 ;; Registers used:
  6922 ;;		wreg, status,2
  6923 ;; Tracked objects:
  6924 ;;		On entry : 0/0
  6925 ;;		On exit  : 0/0
  6926 ;;		Unchanged: 0/0
  6927 ;; Data sizes:     COMRAM   BANK0   BANK1   BANK2   BANK3   BANK4   BANK5   BANK6   BANK7   BANK8   BANK9  BANK10  BANK1
      +1  BANK12  BANK13  BANK14  BANK15
  6928 ;;      Params:         0       0       0       0       0       0       0       0       0       0       0       0       
      +0       0       0       0       0
  6929 ;;      Locals:         1       0       0       0       0       0       0       0       0       0       0       0       
      +0       0       0       0       0
  6930 ;;      Temps:          0       0       0       0       0       0       0       0       0       0       0       0       
      +0       0       0       0       0
  6931 ;;      Totals:         1       0       0       0       0       0       0       0       0       0       0       0       
      +0       0       0       0       0
  6932 ;;Total ram usage:        1 bytes
  6933 ;; Hardware stack levels used: 1
  6934 ;; This function calls:
  6935 ;;		Nothing
  6936 ;; This function is called by:
  6937 ;;		_USART_Asynchronous_WriteString_Blocking
  6938 ;; This function uses a non-reentrant model
  6939 ;;
  6940                           
  6941                           	psect	text32
  6942   00333A                     __ptext32:
  6943                           	callstack 0
  6944   00333A                     _USART_Asynchronous_WriteByte_Blocking:
  6945                           	callstack 20
  6946                           
  6947                           ;incstack = 0
  6948                           ;USART_Asynchronous_WriteByte_Blocking@_data stored from wreg
  6949   00333A  6E01               	movwf	USART_Asynchronous_WriteByte_Blocking@_data^0,c
  6950   00333C                     i2l1487:
  6951   00333C  A2AC               	btfss	172,1,c	;volatile
  6952   00333E  EFA3  F019         	goto	i2u411_41
  6953   003342  EFA5  F019         	goto	i2u411_40
  6954   003346                     i2u411_41:
  6955   003346  EF9E  F019         	goto	i2l1487
  6956   00334A                     i2u411_40:
  6957   00334A                     
  6958                           ;MCAL_Layer/USART/hal_usart.c: 173:     (PIE1bits.TXIE = 1);
  6959   00334A  889D               	bsf	157,4,c	;volatile
  6960   00334C                     
  6961                           ;MCAL_Layer/USART/hal_usart.c: 175:     TXREG = _data;
  6962   00334C  C001  FFAD         	movff	USART_Asynchronous_WriteByte_Blocking@_data,4013	;volatile
  6963   003350                     
  6964                           ;MCAL_Layer/USART/hal_usart.c: 176:     return ret;
  6965   003350  0E01               	movlw	1
  6966   003352  0012               	return		;funcret
  6967   003354                     __end_of_USART_Asynchronous_WriteByte_Blocking:
  6968                           	callstack 0
  6969                           
  6970 ;; *************** function _USART_OverrunDefaultErrorHandler *****************
  6971 ;; Defined at:
  6972 ;;		line 51 in file "application.c"
  6973 ;; Parameters:    Size  Location     Type
  6974 ;;		None
  6975 ;; Auto vars:     Size  Location     Type
  6976 ;;		None
  6977 ;; Return value:  Size  Location     Type
  6978 ;;                  1    wreg      void 
  6979 ;; Registers used:
  6980 ;;		wreg, status,2, cstack
  6981 ;; Tracked objects:
  6982 ;;		On entry : 0/0
  6983 ;;		On exit  : 0/0
  6984 ;;		Unchanged: 0/0
  6985 ;; Data sizes:     COMRAM   BANK0   BANK1   BANK2   BANK3   BANK4   BANK5   BANK6   BANK7   BANK8   BANK9  BANK10  BANK1
      +1  BANK12  BANK13  BANK14  BANK15
  6986 ;;      Params:         0       0       0       0       0       0       0       0       0       0       0       0       
      +0       0       0       0       0
  6987 ;;      Locals:         0       0       0       0       0       0       0       0       0       0       0       0       
      +0       0       0       0       0
  6988 ;;      Temps:          0       0       0       0       0       0       0       0       0       0       0       0       
      +0       0       0       0       0
  6989 ;;      Totals:         0       0       0       0       0       0       0       0       0       0       0       0       
      +0       0       0       0       0
  6990 ;;Total ram usage:        0 bytes
  6991 ;; Hardware stack levels used: 1
  6992 ;; Hardware stack levels required when called: 1
  6993 ;; This function calls:
  6994 ;;		_USART_Asynchronous_Restart_RX
  6995 ;; This function is called by:
  6996 ;;		_usart_module_int_init
  6997 ;;		_USART_RX_ISR
  6998 ;; This function uses a non-reentrant model
  6999 ;;
  7000                           
  7001                           	psect	text33
  7002   003412                     __ptext33:
  7003                           	callstack 0
  7004   003412                     _USART_OverrunDefaultErrorHandler:
  7005                           	callstack 21
  7006   003412                     
  7007                           ;application.c: 53:     USART_Asynchronous_Restart_RX();
  7008   003412  EC0C  F01A         	call	_USART_Asynchronous_Restart_RX	;wreg free
  7009   003416  0012               	return		;funcret
  7010   003418                     __end_of_USART_OverrunDefaultErrorHandler:
  7011                           	callstack 0
  7012                           
  7013 ;; *************** function _USART_Asynchronous_Restart_RX *****************
  7014 ;; Defined at:
  7015 ;;		line 150 in file "MCAL_Layer/USART/hal_usart.c"
  7016 ;; Parameters:    Size  Location     Type
  7017 ;;		None
  7018 ;; Auto vars:     Size  Location     Type
  7019 ;;  ret             1    0        unsigned char 
  7020 ;; Return value:  Size  Location     Type
  7021 ;;                  1    wreg      unsigned char 
  7022 ;; Registers used:
  7023 ;;		wreg, status,2
  7024 ;; Tracked objects:
  7025 ;;		On entry : 0/0
  7026 ;;		On exit  : 0/0
  7027 ;;		Unchanged: 0/0
  7028 ;; Data sizes:     COMRAM   BANK0   BANK1   BANK2   BANK3   BANK4   BANK5   BANK6   BANK7   BANK8   BANK9  BANK10  BANK1
      +1  BANK12  BANK13  BANK14  BANK15
  7029 ;;      Params:         0       0       0       0       0       0       0       0       0       0       0       0       
      +0       0       0       0       0
  7030 ;;      Locals:         0       0       0       0       0       0       0       0       0       0       0       0       
      +0       0       0       0       0
  7031 ;;      Temps:          0       0       0       0       0       0       0       0       0       0       0       0       
      +0       0       0       0       0
  7032 ;;      Totals:         0       0       0       0       0       0       0       0       0       0       0       0       
      +0       0       0       0       0
  7033 ;;Total ram usage:        0 bytes
  7034 ;; Hardware stack levels used: 1
  7035 ;; This function calls:
  7036 ;;		Nothing
  7037 ;; This function is called by:
  7038 ;;		_USART_OverrunDefaultErrorHandler
  7039 ;; This function uses a non-reentrant model
  7040 ;;
  7041                           
  7042                           	psect	text34
  7043   003418                     __ptext34:
  7044                           	callstack 0
  7045   003418                     _USART_Asynchronous_Restart_RX:
  7046                           	callstack 21
  7047   003418                     
  7048                           ;MCAL_Layer/USART/hal_usart.c: 154:     RCSTAbits.CREN = 0;
  7049   003418  98AB               	bcf	171,4,c	;volatile
  7050   00341A                     
  7051                           ;MCAL_Layer/USART/hal_usart.c: 156:     RCSTAbits.CREN = 1;
  7052   00341A  88AB               	bsf	171,4,c	;volatile
  7053   00341C  0012               	return		;funcret
  7054   00341E                     __end_of_USART_Asynchronous_Restart_RX:
  7055                           	callstack 0
  7056                           
  7057 ;; *************** function _USART_FramingDefaultErrorHandler *****************
  7058 ;; Defined at:
  7059 ;;		line 45 in file "application.c"
  7060 ;; Parameters:    Size  Location     Type
  7061 ;;		None
  7062 ;; Auto vars:     Size  Location     Type
  7063 ;;  _data_          1    3[COMRAM] unsigned char 
  7064 ;; Return value:  Size  Location     Type
  7065 ;;                  1    wreg      void 
  7066 ;; Registers used:
  7067 ;;		wreg, fsr2l, fsr2h, status,2, status,0, cstack
  7068 ;; Tracked objects:
  7069 ;;		On entry : 0/0
  7070 ;;		On exit  : 0/0
  7071 ;;		Unchanged: 0/0
  7072 ;; Data sizes:     COMRAM   BANK0   BANK1   BANK2   BANK3   BANK4   BANK5   BANK6   BANK7   BANK8   BANK9  BANK10  BANK1
      +1  BANK12  BANK13  BANK14  BANK15
  7073 ;;      Params:         0       0       0       0       0       0       0       0       0       0       0       0       
      +0       0       0       0       0
  7074 ;;      Locals:         1       0       0       0       0       0       0       0       0       0       0       0       
      +0       0       0       0       0
  7075 ;;      Temps:          0       0       0       0       0       0       0       0       0       0       0       0       
      +0       0       0       0       0
  7076 ;;      Totals:         1       0       0       0       0       0       0       0       0       0       0       0       
      +0       0       0       0       0
  7077 ;;Total ram usage:        1 bytes
  7078 ;; Hardware stack levels used: 1
  7079 ;; Hardware stack levels required when called: 1
  7080 ;; This function calls:
  7081 ;;		_USART_Asynchronous_ReadByte_NonBlocking
  7082 ;; This function is called by:
  7083 ;;		_usart_module_int_init
  7084 ;;		_USART_RX_ISR
  7085 ;; This function uses a non-reentrant model
  7086 ;;
  7087                           
  7088                           	psect	text35
  7089   0033CC                     __ptext35:
  7090                           	callstack 0
  7091   0033CC                     _USART_FramingDefaultErrorHandler:
  7092                           	callstack 21
  7093   0033CC                     
  7094                           ;application.c: 47:     uint8 _data_;;application.c: 48:     USART_Asynchronous_ReadByte
      +                          _NonBlocking(&_data_);
  7095   0033CC  0E04               	movlw	low USART_FramingDefaultErrorHandler@_data_
  7096   0033CE  6E01               	movwf	USART_Asynchronous_ReadByte_NonBlocking@_data^0,c
  7097   0033D0  0E00               	movlw	high USART_FramingDefaultErrorHandler@_data_
  7098   0033D2  6E02               	movwf	(USART_Asynchronous_ReadByte_NonBlocking@_data+1)^0,c
  7099   0033D4  EC67  F019         	call	_USART_Asynchronous_ReadByte_NonBlocking	;wreg free
  7100   0033D8  0012               	return		;funcret
  7101   0033DA                     __end_of_USART_FramingDefaultErrorHandler:
  7102                           	callstack 0
  7103                           
  7104 ;; *************** function _USART_Asynchronous_ReadByte_NonBlocking *****************
  7105 ;; Defined at:
  7106 ;;		line 129 in file "MCAL_Layer/USART/hal_usart.c"
  7107 ;; Parameters:    Size  Location     Type
  7108 ;;  _data           2    0[COMRAM] PTR unsigned char 
  7109 ;;		 -> receive_usart_data(1), USART_FramingDefaultErrorHandler@_data_(1), 
  7110 ;; Auto vars:     Size  Location     Type
  7111 ;;  ret             1    2[COMRAM] unsigned char 
  7112 ;; Return value:  Size  Location     Type
  7113 ;;                  1    wreg      unsigned char 
  7114 ;; Registers used:
  7115 ;;		wreg, fsr2l, fsr2h, status,2
  7116 ;; Tracked objects:
  7117 ;;		On entry : 0/0
  7118 ;;		On exit  : 0/0
  7119 ;;		Unchanged: 0/0
  7120 ;; Data sizes:     COMRAM   BANK0   BANK1   BANK2   BANK3   BANK4   BANK5   BANK6   BANK7   BANK8   BANK9  BANK10  BANK1
      +1  BANK12  BANK13  BANK14  BANK15
  7121 ;;      Params:         2       0       0       0       0       0       0       0       0       0       0       0       
      +0       0       0       0       0
  7122 ;;      Locals:         1       0       0       0       0       0       0       0       0       0       0       0       
      +0       0       0       0       0
  7123 ;;      Temps:          0       0       0       0       0       0       0       0       0       0       0       0       
      +0       0       0       0       0
  7124 ;;      Totals:         3       0       0       0       0       0       0       0       0       0       0       0       
      +0       0       0       0       0
  7125 ;;Total ram usage:        3 bytes
  7126 ;; Hardware stack levels used: 1
  7127 ;; This function calls:
  7128 ;;		Nothing
  7129 ;; This function is called by:
  7130 ;;		_USART_FramingDefaultErrorHandler
  7131 ;;		_USART_RxDefaultInterruptHandler
  7132 ;; This function uses a non-reentrant model
  7133 ;;
  7134                           
  7135                           	psect	text36
  7136   0032CE                     __ptext36:
  7137                           	callstack 0
  7138   0032CE                     _USART_Asynchronous_ReadByte_NonBlocking:
  7139                           	callstack 21
  7140   0032CE                     
  7141                           ;MCAL_Layer/USART/hal_usart.c: 132:     if(1 == PIR1bits.RCIF)
  7142   0032CE  AA9E               	btfss	158,5,c	;volatile
  7143   0032D0  EF6C  F019         	goto	i2u513_41
  7144   0032D4  EF6E  F019         	goto	i2u513_40
  7145   0032D8                     i2u513_41:
  7146   0032D8  EF78  F019         	goto	i2l6202
  7147   0032DC                     i2u513_40:
  7148   0032DC                     
  7149                           ;MCAL_Layer/USART/hal_usart.c: 133:     {;MCAL_Layer/USART/hal_usart.c: 134:         *_d
      +                          ata = RCREG;
  7150   0032DC  C001  FFD9         	movff	USART_Asynchronous_ReadByte_NonBlocking@_data,fsr2l
  7151   0032E0  C002  FFDA         	movff	USART_Asynchronous_ReadByte_NonBlocking@_data+1,fsr2h
  7152   0032E4  CFAE FFDF          	movff	4014,indf2	;volatile
  7153   0032E8                     
  7154                           ;MCAL_Layer/USART/hal_usart.c: 135:         ret = (Std_ReturnType)0x01;
  7155   0032E8  0E01               	movlw	1
  7156   0032EA  6E03               	movwf	USART_Asynchronous_ReadByte_NonBlocking@ret^0,c
  7157                           
  7158                           ;MCAL_Layer/USART/hal_usart.c: 136:     }
  7159   0032EC  EF7A  F019         	goto	i2l1480
  7160   0032F0                     i2l6202:
  7161                           
  7162                           ;MCAL_Layer/USART/hal_usart.c: 138:     {;MCAL_Layer/USART/hal_usart.c: 139:         ret
      +                           = (Std_ReturnType)0x00;
  7163   0032F0  0E00               	movlw	0
  7164   0032F2  6E03               	movwf	USART_Asynchronous_ReadByte_NonBlocking@ret^0,c
  7165   0032F4                     i2l1480:
  7166                           
  7167                           ;MCAL_Layer/USART/hal_usart.c: 141:     return ret;
  7168   0032F4  5003               	movf	USART_Asynchronous_ReadByte_NonBlocking@ret^0,w,c
  7169   0032F6  0012               	return		;funcret
  7170   0032F8                     __end_of_USART_Asynchronous_ReadByte_NonBlocking:
  7171                           	callstack 0
  7172                           
  7173 ;; *************** function _TMR3_ISR *****************
  7174 ;; Defined at:
  7175 ;;		line 172 in file "MCAL_Layer/Timer3/hal_timer3.c"
  7176 ;; Parameters:    Size  Location     Type
  7177 ;;		None
  7178 ;; Auto vars:     Size  Location     Type
  7179 ;;		None
  7180 ;; Return value:  Size  Location     Type
  7181 ;;                  1    wreg      void 
  7182 ;; Registers used:
  7183 ;;		wreg, status,2
  7184 ;; Tracked objects:
  7185 ;;		On entry : 0/0
  7186 ;;		On exit  : 0/0
  7187 ;;		Unchanged: 0/0
  7188 ;; Data sizes:     COMRAM   BANK0   BANK1   BANK2   BANK3   BANK4   BANK5   BANK6   BANK7   BANK8   BANK9  BANK10  BANK1
      +1  BANK12  BANK13  BANK14  BANK15
  7189 ;;      Params:         0       0       0       0       0       0       0       0       0       0       0       0       
      +0       0       0       0       0
  7190 ;;      Locals:         0       0       0       0       0       0       0       0       0       0       0       0       
      +0       0       0       0       0
  7191 ;;      Temps:          0       0       0       0       0       0       0       0       0       0       0       0       
      +0       0       0       0       0
  7192 ;;      Totals:         0       0       0       0       0       0       0       0       0       0       0       0       
      +0       0       0       0       0
  7193 ;;Total ram usage:        0 bytes
  7194 ;; Hardware stack levels used: 1
  7195 ;; This function calls:
  7196 ;;		Nothing
  7197 ;; This function is called by:
  7198 ;;		_InterruptManager
  7199 ;; This function uses a non-reentrant model
  7200 ;;
  7201                           
  7202                           	psect	text37
  7203   0033DA                     __ptext37:
  7204                           	callstack 0
  7205   0033DA                     _TMR3_ISR:
  7206                           	callstack 23
  7207   0033DA                     
  7208                           ;MCAL_Layer/Timer3/hal_timer3.c: 174:     (PIR2bits.TMR3IF = 0);
  7209   0033DA  92A1               	bcf	161,1,c	;volatile
  7210   0033DC                     
  7211                           ;MCAL_Layer/Timer3/hal_timer3.c: 175:     TMR3H = (timer3_preload) >> 8;
  7212   0033DC  5050               	movf	(_timer3_preload+1)^0,w,c
  7213   0033DE  6EB3               	movwf	179,c	;volatile
  7214   0033E0                     
  7215                           ;MCAL_Layer/Timer3/hal_timer3.c: 176:     TMR3L = (uint8)(timer3_preload);
  7216   0033E0  C04F  FFB2         	movff	_timer3_preload,4018	;volatile
  7217   0033E4  0012               	return		;funcret
  7218   0033E6                     __end_of_TMR3_ISR:
  7219                           	callstack 0
  7220                           
  7221 ;; *************** function _TMR2_ISR *****************
  7222 ;; Defined at:
  7223 ;;		line 162 in file "MCAL_Layer/Timer2/hal_timer2.c"
  7224 ;; Parameters:    Size  Location     Type
  7225 ;;		None
  7226 ;; Auto vars:     Size  Location     Type
  7227 ;;		None
  7228 ;; Return value:  Size  Location     Type
  7229 ;;                  1    wreg      void 
  7230 ;; Registers used:
  7231 ;;		None
  7232 ;; Tracked objects:
  7233 ;;		On entry : 0/0
  7234 ;;		On exit  : 0/0
  7235 ;;		Unchanged: 0/0
  7236 ;; Data sizes:     COMRAM   BANK0   BANK1   BANK2   BANK3   BANK4   BANK5   BANK6   BANK7   BANK8   BANK9  BANK10  BANK1
      +1  BANK12  BANK13  BANK14  BANK15
  7237 ;;      Params:         0       0       0       0       0       0       0       0       0       0       0       0       
      +0       0       0       0       0
  7238 ;;      Locals:         0       0       0       0       0       0       0       0       0       0       0       0       
      +0       0       0       0       0
  7239 ;;      Temps:          0       0       0       0       0       0       0       0       0       0       0       0       
      +0       0       0       0       0
  7240 ;;      Totals:         0       0       0       0       0       0       0       0       0       0       0       0       
      +0       0       0       0       0
  7241 ;;Total ram usage:        0 bytes
  7242 ;; Hardware stack levels used: 1
  7243 ;; This function calls:
  7244 ;;		Nothing
  7245 ;; This function is called by:
  7246 ;;		_InterruptManager
  7247 ;; This function uses a non-reentrant model
  7248 ;;
  7249                           
  7250                           	psect	text38
  7251   0033FE                     __ptext38:
  7252                           	callstack 0
  7253   0033FE                     _TMR2_ISR:
  7254                           	callstack 23
  7255   0033FE                     
  7256                           ;MCAL_Layer/Timer2/hal_timer2.c: 164:     (PIR1bits.TMR2IF = 0);
  7257   0033FE  929E               	bcf	158,1,c	;volatile
  7258                           
  7259                           ;MCAL_Layer/Timer2/hal_timer2.c: 165:     TMR2 = timer2_preload;
  7260   003400  C057  FFCC         	movff	_timer2_preload,4044	;volatile
  7261   003404  0012               	return		;funcret
  7262   003406                     __end_of_TMR2_ISR:
  7263                           	callstack 0
  7264                           
  7265 ;; *************** function _TMR1_ISR *****************
  7266 ;; Defined at:
  7267 ;;		line 172 in file "MCAL_Layer/Timer1/hal_timer1.c"
  7268 ;; Parameters:    Size  Location     Type
  7269 ;;		None
  7270 ;; Auto vars:     Size  Location     Type
  7271 ;;		None
  7272 ;; Return value:  Size  Location     Type
  7273 ;;                  1    wreg      void 
  7274 ;; Registers used:
  7275 ;;		wreg, status,2
  7276 ;; Tracked objects:
  7277 ;;		On entry : 0/0
  7278 ;;		On exit  : 0/0
  7279 ;;		Unchanged: 0/0
  7280 ;; Data sizes:     COMRAM   BANK0   BANK1   BANK2   BANK3   BANK4   BANK5   BANK6   BANK7   BANK8   BANK9  BANK10  BANK1
      +1  BANK12  BANK13  BANK14  BANK15
  7281 ;;      Params:         0       0       0       0       0       0       0       0       0       0       0       0       
      +0       0       0       0       0
  7282 ;;      Locals:         0       0       0       0       0       0       0       0       0       0       0       0       
      +0       0       0       0       0
  7283 ;;      Temps:          0       0       0       0       0       0       0       0       0       0       0       0       
      +0       0       0       0       0
  7284 ;;      Totals:         0       0       0       0       0       0       0       0       0       0       0       0       
      +0       0       0       0       0
  7285 ;;Total ram usage:        0 bytes
  7286 ;; Hardware stack levels used: 1
  7287 ;; This function calls:
  7288 ;;		Nothing
  7289 ;; This function is called by:
  7290 ;;		_InterruptManager
  7291 ;; This function uses a non-reentrant model
  7292 ;;
  7293                           
  7294                           	psect	text39
  7295   0033E6                     __ptext39:
  7296                           	callstack 0
  7297   0033E6                     _TMR1_ISR:
  7298                           	callstack 23
  7299   0033E6                     
  7300                           ;MCAL_Layer/Timer1/hal_timer1.c: 174:     (PIR1bits.TMR1IF = 0);
  7301   0033E6  909E               	bcf	158,0,c	;volatile
  7302   0033E8                     
  7303                           ;MCAL_Layer/Timer1/hal_timer1.c: 175:     TMR1H = (timer1_preload) >> 8;
  7304   0033E8  5052               	movf	(_timer1_preload+1)^0,w,c
  7305   0033EA  6ECF               	movwf	207,c	;volatile
  7306   0033EC                     
  7307                           ;MCAL_Layer/Timer1/hal_timer1.c: 176:     TMR1L = (uint8)(timer1_preload);
  7308   0033EC  C051  FFCE         	movff	_timer1_preload,4046	;volatile
  7309   0033F0  0012               	return		;funcret
  7310   0033F2                     __end_of_TMR1_ISR:
  7311                           	callstack 0
  7312                           
  7313 ;; *************** function _TMR0_ISR *****************
  7314 ;; Defined at:
  7315 ;;		line 186 in file "MCAL_Layer/Timer0/hal_timer0.c"
  7316 ;; Parameters:    Size  Location     Type
  7317 ;;		None
  7318 ;; Auto vars:     Size  Location     Type
  7319 ;;		None
  7320 ;; Return value:  Size  Location     Type
  7321 ;;                  1    wreg      void 
  7322 ;; Registers used:
  7323 ;;		wreg, status,2
  7324 ;; Tracked objects:
  7325 ;;		On entry : 0/0
  7326 ;;		On exit  : 0/0
  7327 ;;		Unchanged: 0/0
  7328 ;; Data sizes:     COMRAM   BANK0   BANK1   BANK2   BANK3   BANK4   BANK5   BANK6   BANK7   BANK8   BANK9  BANK10  BANK1
      +1  BANK12  BANK13  BANK14  BANK15
  7329 ;;      Params:         0       0       0       0       0       0       0       0       0       0       0       0       
      +0       0       0       0       0
  7330 ;;      Locals:         0       0       0       0       0       0       0       0       0       0       0       0       
      +0       0       0       0       0
  7331 ;;      Temps:          0       0       0       0       0       0       0       0       0       0       0       0       
      +0       0       0       0       0
  7332 ;;      Totals:         0       0       0       0       0       0       0       0       0       0       0       0       
      +0       0       0       0       0
  7333 ;;Total ram usage:        0 bytes
  7334 ;; Hardware stack levels used: 1
  7335 ;; This function calls:
  7336 ;;		Nothing
  7337 ;; This function is called by:
  7338 ;;		_InterruptManager
  7339 ;; This function uses a non-reentrant model
  7340 ;;
  7341                           
  7342                           	psect	text40
  7343   0033F2                     __ptext40:
  7344                           	callstack 0
  7345   0033F2                     _TMR0_ISR:
  7346                           	callstack 23
  7347   0033F2                     
  7348                           ;MCAL_Layer/Timer0/hal_timer0.c: 188:     (INTCONbits.TMR0IF = 0);
  7349   0033F2  94F2               	bcf	242,2,c	;volatile
  7350   0033F4                     
  7351                           ;MCAL_Layer/Timer0/hal_timer0.c: 189:     TMR0H = (timer0_preload) >> 8;
  7352   0033F4  5054               	movf	(_timer0_preload+1)^0,w,c
  7353   0033F6  6ED7               	movwf	215,c	;volatile
  7354   0033F8                     
  7355                           ;MCAL_Layer/Timer0/hal_timer0.c: 190:     TMR0L = (uint8)(timer0_preload);
  7356   0033F8  C053  FFD6         	movff	_timer0_preload,4054	;volatile
  7357   0033FC  0012               	return		;funcret
  7358   0033FE                     __end_of_TMR0_ISR:
  7359                           	callstack 0
  7360                           
  7361 ;; *************** function _RB7_ISR *****************
  7362 ;; Defined at:
  7363 ;;		line 284 in file "MCAL_Layer/Interrupt/mcal_external_interrupt.c"
  7364 ;; Parameters:    Size  Location     Type
  7365 ;;  RB7_Source      1    wreg     unsigned char 
  7366 ;; Auto vars:     Size  Location     Type
  7367 ;;  RB7_Source      1    0[COMRAM] unsigned char 
  7368 ;; Return value:  Size  Location     Type
  7369 ;;                  1    wreg      void 
  7370 ;; Registers used:
  7371 ;;		wreg, status,2, status,0
  7372 ;; Tracked objects:
  7373 ;;		On entry : 0/0
  7374 ;;		On exit  : 0/0
  7375 ;;		Unchanged: 0/0
  7376 ;; Data sizes:     COMRAM   BANK0   BANK1   BANK2   BANK3   BANK4   BANK5   BANK6   BANK7   BANK8   BANK9  BANK10  BANK1
      +1  BANK12  BANK13  BANK14  BANK15
  7377 ;;      Params:         0       0       0       0       0       0       0       0       0       0       0       0       
      +0       0       0       0       0
  7378 ;;      Locals:         1       0       0       0       0       0       0       0       0       0       0       0       
      +0       0       0       0       0
  7379 ;;      Temps:          0       0       0       0       0       0       0       0       0       0       0       0       
      +0       0       0       0       0
  7380 ;;      Totals:         1       0       0       0       0       0       0       0       0       0       0       0       
      +0       0       0       0       0
  7381 ;;Total ram usage:        1 bytes
  7382 ;; Hardware stack levels used: 1
  7383 ;; This function calls:
  7384 ;;		Nothing
  7385 ;; This function is called by:
  7386 ;;		_InterruptManager
  7387 ;; This function uses a non-reentrant model
  7388 ;;
  7389                           
  7390                           	psect	text41
  7391   003354                     __ptext41:
  7392                           	callstack 0
  7393   003354                     _RB7_ISR:
  7394                           	callstack 23
  7395                           
  7396                           ;incstack = 0
  7397                           ;RB7_ISR@RB7_Source stored from wreg
  7398   003354  6E01               	movwf	RB7_ISR@RB7_Source^0,c
  7399   003356                     
  7400                           ;MCAL_Layer/Interrupt/mcal_external_interrupt.c: 284: void RB7_ISR(uint8 RB7_Source);MCA
      +                          L_Layer/Interrupt/mcal_external_interrupt.c: 285: {;MCAL_Layer/Interrupt/mcal_external_i
      +                          nterrupt.c: 286:     (INTCONbits.RBIF = 0);
  7401   003356  90F2               	bcf	242,0,c	;volatile
  7402   003358                     
  7403                           ;MCAL_Layer/Interrupt/mcal_external_interrupt.c: 287:     if(0 == RB7_Source)
  7404   003358  5001               	movf	RB7_ISR@RB7_Source^0,w,c
  7405   00335A  A4D8               	btfss	status,2,c
  7406   00335C  EFB2  F019         	goto	i2u529_41
  7407   003360  EFB4  F019         	goto	i2u529_40
  7408   003364                     i2u529_41:
  7409   003364  EFB6  F019         	goto	i2l6462
  7410   003368                     i2u529_40:
  7411   003368  EFB6  F019         	goto	i2l987
  7412   00336C                     i2l6462:
  7413   00336C                     i2l987:
  7414   00336C  0012               	return		;funcret
  7415   00336E                     __end_of_RB7_ISR:
  7416                           	callstack 0
  7417                           
  7418 ;; *************** function _RB6_ISR *****************
  7419 ;; Defined at:
  7420 ;;		line 264 in file "MCAL_Layer/Interrupt/mcal_external_interrupt.c"
  7421 ;; Parameters:    Size  Location     Type
  7422 ;;  RB6_Source      1    wreg     unsigned char 
  7423 ;; Auto vars:     Size  Location     Type
  7424 ;;  RB6_Source      1    0[COMRAM] unsigned char 
  7425 ;; Return value:  Size  Location     Type
  7426 ;;                  1    wreg      void 
  7427 ;; Registers used:
  7428 ;;		wreg, status,2, status,0
  7429 ;; Tracked objects:
  7430 ;;		On entry : 0/0
  7431 ;;		On exit  : 0/0
  7432 ;;		Unchanged: 0/0
  7433 ;; Data sizes:     COMRAM   BANK0   BANK1   BANK2   BANK3   BANK4   BANK5   BANK6   BANK7   BANK8   BANK9  BANK10  BANK1
      +1  BANK12  BANK13  BANK14  BANK15
  7434 ;;      Params:         0       0       0       0       0       0       0       0       0       0       0       0       
      +0       0       0       0       0
  7435 ;;      Locals:         1       0       0       0       0       0       0       0       0       0       0       0       
      +0       0       0       0       0
  7436 ;;      Temps:          0       0       0       0       0       0       0       0       0       0       0       0       
      +0       0       0       0       0
  7437 ;;      Totals:         1       0       0       0       0       0       0       0       0       0       0       0       
      +0       0       0       0       0
  7438 ;;Total ram usage:        1 bytes
  7439 ;; Hardware stack levels used: 1
  7440 ;; This function calls:
  7441 ;;		Nothing
  7442 ;; This function is called by:
  7443 ;;		_InterruptManager
  7444 ;; This function uses a non-reentrant model
  7445 ;;
  7446                           
  7447                           	psect	text42
  7448   00336E                     __ptext42:
  7449                           	callstack 0
  7450   00336E                     _RB6_ISR:
  7451                           	callstack 23
  7452                           
  7453                           ;incstack = 0
  7454                           ;RB6_ISR@RB6_Source stored from wreg
  7455   00336E  6E01               	movwf	RB6_ISR@RB6_Source^0,c
  7456   003370                     
  7457                           ;MCAL_Layer/Interrupt/mcal_external_interrupt.c: 264: void RB6_ISR(uint8 RB6_Source);MCA
      +                          L_Layer/Interrupt/mcal_external_interrupt.c: 265: {;MCAL_Layer/Interrupt/mcal_external_i
      +                          nterrupt.c: 266:     (INTCONbits.RBIF = 0);
  7458   003370  90F2               	bcf	242,0,c	;volatile
  7459   003372                     
  7460                           ;MCAL_Layer/Interrupt/mcal_external_interrupt.c: 267:     if(0 == RB6_Source)
  7461   003372  5001               	movf	RB6_ISR@RB6_Source^0,w,c
  7462   003374  A4D8               	btfss	status,2,c
  7463   003376  EFBF  F019         	goto	i2u528_41
  7464   00337A  EFC1  F019         	goto	i2u528_40
  7465   00337E                     i2u528_41:
  7466   00337E  EFC3  F019         	goto	i2l6448
  7467   003382                     i2u528_40:
  7468   003382  EFC3  F019         	goto	i2l976
  7469   003386                     i2l6448:
  7470   003386                     i2l976:
  7471   003386  0012               	return		;funcret
  7472   003388                     __end_of_RB6_ISR:
  7473                           	callstack 0
  7474                           
  7475 ;; *************** function _RB5_ISR *****************
  7476 ;; Defined at:
  7477 ;;		line 244 in file "MCAL_Layer/Interrupt/mcal_external_interrupt.c"
  7478 ;; Parameters:    Size  Location     Type
  7479 ;;  RB5_Source      1    wreg     unsigned char 
  7480 ;; Auto vars:     Size  Location     Type
  7481 ;;  RB5_Source      1    0[COMRAM] unsigned char 
  7482 ;; Return value:  Size  Location     Type
  7483 ;;                  1    wreg      void 
  7484 ;; Registers used:
  7485 ;;		wreg, status,2, status,0
  7486 ;; Tracked objects:
  7487 ;;		On entry : 0/0
  7488 ;;		On exit  : 0/0
  7489 ;;		Unchanged: 0/0
  7490 ;; Data sizes:     COMRAM   BANK0   BANK1   BANK2   BANK3   BANK4   BANK5   BANK6   BANK7   BANK8   BANK9  BANK10  BANK1
      +1  BANK12  BANK13  BANK14  BANK15
  7491 ;;      Params:         0       0       0       0       0       0       0       0       0       0       0       0       
      +0       0       0       0       0
  7492 ;;      Locals:         1       0       0       0       0       0       0       0       0       0       0       0       
      +0       0       0       0       0
  7493 ;;      Temps:          0       0       0       0       0       0       0       0       0       0       0       0       
      +0       0       0       0       0
  7494 ;;      Totals:         1       0       0       0       0       0       0       0       0       0       0       0       
      +0       0       0       0       0
  7495 ;;Total ram usage:        1 bytes
  7496 ;; Hardware stack levels used: 1
  7497 ;; This function calls:
  7498 ;;		Nothing
  7499 ;; This function is called by:
  7500 ;;		_InterruptManager
  7501 ;; This function uses a non-reentrant model
  7502 ;;
  7503                           
  7504                           	psect	text43
  7505   003388                     __ptext43:
  7506                           	callstack 0
  7507   003388                     _RB5_ISR:
  7508                           	callstack 23
  7509                           
  7510                           ;incstack = 0
  7511                           ;RB5_ISR@RB5_Source stored from wreg
  7512   003388  6E01               	movwf	RB5_ISR@RB5_Source^0,c
  7513   00338A                     
  7514                           ;MCAL_Layer/Interrupt/mcal_external_interrupt.c: 244: void RB5_ISR(uint8 RB5_Source);MCA
      +                          L_Layer/Interrupt/mcal_external_interrupt.c: 245: {;MCAL_Layer/Interrupt/mcal_external_i
      +                          nterrupt.c: 246:     (INTCONbits.RBIF = 0);
  7515   00338A  90F2               	bcf	242,0,c	;volatile
  7516   00338C                     
  7517                           ;MCAL_Layer/Interrupt/mcal_external_interrupt.c: 247:     if(0 == RB5_Source)
  7518   00338C  5001               	movf	RB5_ISR@RB5_Source^0,w,c
  7519   00338E  A4D8               	btfss	status,2,c
  7520   003390  EFCC  F019         	goto	i2u527_41
  7521   003394  EFCE  F019         	goto	i2u527_40
  7522   003398                     i2u527_41:
  7523   003398  EFD0  F019         	goto	i2l6434
  7524   00339C                     i2u527_40:
  7525   00339C  EFD0  F019         	goto	i2l965
  7526   0033A0                     i2l6434:
  7527   0033A0                     i2l965:
  7528   0033A0  0012               	return		;funcret
  7529   0033A2                     __end_of_RB5_ISR:
  7530                           	callstack 0
  7531                           
  7532 ;; *************** function _RB4_ISR *****************
  7533 ;; Defined at:
  7534 ;;		line 224 in file "MCAL_Layer/Interrupt/mcal_external_interrupt.c"
  7535 ;; Parameters:    Size  Location     Type
  7536 ;;  RB4_Source      1    wreg     unsigned char 
  7537 ;; Auto vars:     Size  Location     Type
  7538 ;;  RB4_Source      1    0[COMRAM] unsigned char 
  7539 ;; Return value:  Size  Location     Type
  7540 ;;                  1    wreg      void 
  7541 ;; Registers used:
  7542 ;;		wreg, status,2, status,0
  7543 ;; Tracked objects:
  7544 ;;		On entry : 0/0
  7545 ;;		On exit  : 0/0
  7546 ;;		Unchanged: 0/0
  7547 ;; Data sizes:     COMRAM   BANK0   BANK1   BANK2   BANK3   BANK4   BANK5   BANK6   BANK7   BANK8   BANK9  BANK10  BANK1
      +1  BANK12  BANK13  BANK14  BANK15
  7548 ;;      Params:         0       0       0       0       0       0       0       0       0       0       0       0       
      +0       0       0       0       0
  7549 ;;      Locals:         1       0       0       0       0       0       0       0       0       0       0       0       
      +0       0       0       0       0
  7550 ;;      Temps:          0       0       0       0       0       0       0       0       0       0       0       0       
      +0       0       0       0       0
  7551 ;;      Totals:         1       0       0       0       0       0       0       0       0       0       0       0       
      +0       0       0       0       0
  7552 ;;Total ram usage:        1 bytes
  7553 ;; Hardware stack levels used: 1
  7554 ;; This function calls:
  7555 ;;		Nothing
  7556 ;; This function is called by:
  7557 ;;		_InterruptManager
  7558 ;; This function uses a non-reentrant model
  7559 ;;
  7560                           
  7561                           	psect	text44
  7562   0033A2                     __ptext44:
  7563                           	callstack 0
  7564   0033A2                     _RB4_ISR:
  7565                           	callstack 23
  7566                           
  7567                           ;incstack = 0
  7568                           ;RB4_ISR@RB4_Source stored from wreg
  7569   0033A2  6E01               	movwf	RB4_ISR@RB4_Source^0,c
  7570   0033A4                     
  7571                           ;MCAL_Layer/Interrupt/mcal_external_interrupt.c: 224: void RB4_ISR(uint8 RB4_Source);MCA
      +                          L_Layer/Interrupt/mcal_external_interrupt.c: 225: {;MCAL_Layer/Interrupt/mcal_external_i
      +                          nterrupt.c: 226:     (INTCONbits.RBIF = 0);
  7572   0033A4  90F2               	bcf	242,0,c	;volatile
  7573   0033A6                     
  7574                           ;MCAL_Layer/Interrupt/mcal_external_interrupt.c: 227:     if(0 == RB4_Source)
  7575   0033A6  5001               	movf	RB4_ISR@RB4_Source^0,w,c
  7576   0033A8  A4D8               	btfss	status,2,c
  7577   0033AA  EFD9  F019         	goto	i2u526_41
  7578   0033AE  EFDB  F019         	goto	i2u526_40
  7579   0033B2                     i2u526_41:
  7580   0033B2  EFDD  F019         	goto	i2l6420
  7581   0033B6                     i2u526_40:
  7582   0033B6  EFDD  F019         	goto	i2l954
  7583   0033BA                     i2l6420:
  7584   0033BA                     i2l954:
  7585   0033BA  0012               	return		;funcret
  7586   0033BC                     __end_of_RB4_ISR:
  7587                           	callstack 0
  7588                           
  7589 ;; *************** function _MSSP_I2C_ISR *****************
  7590 ;; Defined at:
  7591 ;;		line 357 in file "MCAL_Layer/I2C/hal_i2c.c"
  7592 ;; Parameters:    Size  Location     Type
  7593 ;;		None
  7594 ;; Auto vars:     Size  Location     Type
  7595 ;;		None
  7596 ;; Return value:  Size  Location     Type
  7597 ;;                  1    wreg      void 
  7598 ;; Registers used:
  7599 ;;		None
  7600 ;; Tracked objects:
  7601 ;;		On entry : 0/0
  7602 ;;		On exit  : 0/0
  7603 ;;		Unchanged: 0/0
  7604 ;; Data sizes:     COMRAM   BANK0   BANK1   BANK2   BANK3   BANK4   BANK5   BANK6   BANK7   BANK8   BANK9  BANK10  BANK1
      +1  BANK12  BANK13  BANK14  BANK15
  7605 ;;      Params:         0       0       0       0       0       0       0       0       0       0       0       0       
      +0       0       0       0       0
  7606 ;;      Locals:         0       0       0       0       0       0       0       0       0       0       0       0       
      +0       0       0       0       0
  7607 ;;      Temps:          0       0       0       0       0       0       0       0       0       0       0       0       
      +0       0       0       0       0
  7608 ;;      Totals:         0       0       0       0       0       0       0       0       0       0       0       0       
      +0       0       0       0       0
  7609 ;;Total ram usage:        0 bytes
  7610 ;; Hardware stack levels used: 1
  7611 ;; This function calls:
  7612 ;;		Nothing
  7613 ;; This function is called by:
  7614 ;;		_InterruptManager
  7615 ;; This function uses a non-reentrant model
  7616 ;;
  7617                           
  7618                           	psect	text45
  7619   00341E                     __ptext45:
  7620                           	callstack 0
  7621   00341E                     _MSSP_I2C_ISR:
  7622                           	callstack 23
  7623   00341E                     
  7624                           ;MCAL_Layer/I2C/hal_i2c.c: 360:     (PIR1bits.SSPIF = 0);
  7625   00341E  969E               	bcf	158,3,c	;volatile
  7626   003420  0012               	return		;funcret
  7627   003422                     __end_of_MSSP_I2C_ISR:
  7628                           	callstack 0
  7629                           
  7630 ;; *************** function _MSSP_I2C_BC_ISR *****************
  7631 ;; Defined at:
  7632 ;;		line 372 in file "MCAL_Layer/I2C/hal_i2c.c"
  7633 ;; Parameters:    Size  Location     Type
  7634 ;;		None
  7635 ;; Auto vars:     Size  Location     Type
  7636 ;;		None
  7637 ;; Return value:  Size  Location     Type
  7638 ;;                  1    wreg      void 
  7639 ;; Registers used:
  7640 ;;		None
  7641 ;; Tracked objects:
  7642 ;;		On entry : 0/0
  7643 ;;		On exit  : 0/0
  7644 ;;		Unchanged: 0/0
  7645 ;; Data sizes:     COMRAM   BANK0   BANK1   BANK2   BANK3   BANK4   BANK5   BANK6   BANK7   BANK8   BANK9  BANK10  BANK1
      +1  BANK12  BANK13  BANK14  BANK15
  7646 ;;      Params:         0       0       0       0       0       0       0       0       0       0       0       0       
      +0       0       0       0       0
  7647 ;;      Locals:         0       0       0       0       0       0       0       0       0       0       0       0       
      +0       0       0       0       0
  7648 ;;      Temps:          0       0       0       0       0       0       0       0       0       0       0       0       
      +0       0       0       0       0
  7649 ;;      Totals:         0       0       0       0       0       0       0       0       0       0       0       0       
      +0       0       0       0       0
  7650 ;;Total ram usage:        0 bytes
  7651 ;; Hardware stack levels used: 1
  7652 ;; This function calls:
  7653 ;;		Nothing
  7654 ;; This function is called by:
  7655 ;;		_InterruptManager
  7656 ;; This function uses a non-reentrant model
  7657 ;;
  7658                           
  7659                           	psect	text46
  7660   003422                     __ptext46:
  7661                           	callstack 0
  7662   003422                     _MSSP_I2C_BC_ISR:
  7663                           	callstack 23
  7664   003422                     
  7665                           ;MCAL_Layer/I2C/hal_i2c.c: 375:     (PIR2bits.BCLIF = 0);
  7666   003422  96A1               	bcf	161,3,c	;volatile
  7667   003424  0012               	return		;funcret
  7668   003426                     __end_of_MSSP_I2C_BC_ISR:
  7669                           	callstack 0
  7670                           
  7671 ;; *************** function _INT2_ISR *****************
  7672 ;; Defined at:
  7673 ;;		line 213 in file "MCAL_Layer/Interrupt/mcal_external_interrupt.c"
  7674 ;; Parameters:    Size  Location     Type
  7675 ;;		None
  7676 ;; Auto vars:     Size  Location     Type
  7677 ;;		None
  7678 ;; Return value:  Size  Location     Type
  7679 ;;                  1    wreg      void 
  7680 ;; Registers used:
  7681 ;;		None
  7682 ;; Tracked objects:
  7683 ;;		On entry : 0/0
  7684 ;;		On exit  : 0/0
  7685 ;;		Unchanged: 0/0
  7686 ;; Data sizes:     COMRAM   BANK0   BANK1   BANK2   BANK3   BANK4   BANK5   BANK6   BANK7   BANK8   BANK9  BANK10  BANK1
      +1  BANK12  BANK13  BANK14  BANK15
  7687 ;;      Params:         0       0       0       0       0       0       0       0       0       0       0       0       
      +0       0       0       0       0
  7688 ;;      Locals:         0       0       0       0       0       0       0       0       0       0       0       0       
      +0       0       0       0       0
  7689 ;;      Temps:          0       0       0       0       0       0       0       0       0       0       0       0       
      +0       0       0       0       0
  7690 ;;      Totals:         0       0       0       0       0       0       0       0       0       0       0       0       
      +0       0       0       0       0
  7691 ;;Total ram usage:        0 bytes
  7692 ;; Hardware stack levels used: 1
  7693 ;; This function calls:
  7694 ;;		Nothing
  7695 ;; This function is called by:
  7696 ;;		_InterruptManager
  7697 ;; This function uses a non-reentrant model
  7698 ;;
  7699                           
  7700                           	psect	text47
  7701   003426                     __ptext47:
  7702                           	callstack 0
  7703   003426                     _INT2_ISR:
  7704                           	callstack 23
  7705   003426                     
  7706                           ;MCAL_Layer/Interrupt/mcal_external_interrupt.c: 215:     (INTCON3bits.INT2IF = 0);
  7707   003426  92F0               	bcf	240,1,c	;volatile
  7708   003428  0012               	return		;funcret
  7709   00342A                     __end_of_INT2_ISR:
  7710                           	callstack 0
  7711                           
  7712 ;; *************** function _INT1_ISR *****************
  7713 ;; Defined at:
  7714 ;;		line 203 in file "MCAL_Layer/Interrupt/mcal_external_interrupt.c"
  7715 ;; Parameters:    Size  Location     Type
  7716 ;;		None
  7717 ;; Auto vars:     Size  Location     Type
  7718 ;;		None
  7719 ;; Return value:  Size  Location     Type
  7720 ;;                  1    wreg      void 
  7721 ;; Registers used:
  7722 ;;		None
  7723 ;; Tracked objects:
  7724 ;;		On entry : 0/0
  7725 ;;		On exit  : 0/0
  7726 ;;		Unchanged: 0/0
  7727 ;; Data sizes:     COMRAM   BANK0   BANK1   BANK2   BANK3   BANK4   BANK5   BANK6   BANK7   BANK8   BANK9  BANK10  BANK1
      +1  BANK12  BANK13  BANK14  BANK15
  7728 ;;      Params:         0       0       0       0       0       0       0       0       0       0       0       0       
      +0       0       0       0       0
  7729 ;;      Locals:         0       0       0       0       0       0       0       0       0       0       0       0       
      +0       0       0       0       0
  7730 ;;      Temps:          0       0       0       0       0       0       0       0       0       0       0       0       
      +0       0       0       0       0
  7731 ;;      Totals:         0       0       0       0       0       0       0       0       0       0       0       0       
      +0       0       0       0       0
  7732 ;;Total ram usage:        0 bytes
  7733 ;; Hardware stack levels used: 1
  7734 ;; This function calls:
  7735 ;;		Nothing
  7736 ;; This function is called by:
  7737 ;;		_InterruptManager
  7738 ;; This function uses a non-reentrant model
  7739 ;;
  7740                           
  7741                           	psect	text48
  7742   00342A                     __ptext48:
  7743                           	callstack 0
  7744   00342A                     _INT1_ISR:
  7745                           	callstack 23
  7746   00342A                     
  7747                           ;MCAL_Layer/Interrupt/mcal_external_interrupt.c: 205:     (INTCON3bits.INT1IF = 0);
  7748   00342A  90F0               	bcf	240,0,c	;volatile
  7749   00342C  0012               	return		;funcret
  7750   00342E                     __end_of_INT1_ISR:
  7751                           	callstack 0
  7752                           
  7753 ;; *************** function _INT0_ISR *****************
  7754 ;; Defined at:
  7755 ;;		line 193 in file "MCAL_Layer/Interrupt/mcal_external_interrupt.c"
  7756 ;; Parameters:    Size  Location     Type
  7757 ;;		None
  7758 ;; Auto vars:     Size  Location     Type
  7759 ;;		None
  7760 ;; Return value:  Size  Location     Type
  7761 ;;                  1    wreg      void 
  7762 ;; Registers used:
  7763 ;;		None
  7764 ;; Tracked objects:
  7765 ;;		On entry : 0/0
  7766 ;;		On exit  : 0/0
  7767 ;;		Unchanged: 0/0
  7768 ;; Data sizes:     COMRAM   BANK0   BANK1   BANK2   BANK3   BANK4   BANK5   BANK6   BANK7   BANK8   BANK9  BANK10  BANK1
      +1  BANK12  BANK13  BANK14  BANK15
  7769 ;;      Params:         0       0       0       0       0       0       0       0       0       0       0       0       
      +0       0       0       0       0
  7770 ;;      Locals:         0       0       0       0       0       0       0       0       0       0       0       0       
      +0       0       0       0       0
  7771 ;;      Temps:          0       0       0       0       0       0       0       0       0       0       0       0       
      +0       0       0       0       0
  7772 ;;      Totals:         0       0       0       0       0       0       0       0       0       0       0       0       
      +0       0       0       0       0
  7773 ;;Total ram usage:        0 bytes
  7774 ;; Hardware stack levels used: 1
  7775 ;; This function calls:
  7776 ;;		Nothing
  7777 ;; This function is called by:
  7778 ;;		_InterruptManager
  7779 ;; This function uses a non-reentrant model
  7780 ;;
  7781                           
  7782                           	psect	text49
  7783   00342E                     __ptext49:
  7784                           	callstack 0
  7785   00342E                     _INT0_ISR:
  7786                           	callstack 23
  7787   00342E                     
  7788                           ;MCAL_Layer/Interrupt/mcal_external_interrupt.c: 195:     (INTCONbits.INT0IF = 0);
  7789   00342E  92F2               	bcf	242,1,c	;volatile
  7790   003430  0012               	return		;funcret
  7791   003432                     __end_of_INT0_ISR:
  7792                           	callstack 0
  7793                           
  7794 ;; *************** function _CCP2_ISR *****************
  7795 ;; Defined at:
  7796 ;;		line 401 in file "MCAL_Layer/CCP/hal_ccp.c"
  7797 ;; Parameters:    Size  Location     Type
  7798 ;;		None
  7799 ;; Auto vars:     Size  Location     Type
  7800 ;;		None
  7801 ;; Return value:  Size  Location     Type
  7802 ;;                  1    wreg      void 
  7803 ;; Registers used:
  7804 ;;		None
  7805 ;; Tracked objects:
  7806 ;;		On entry : 0/0
  7807 ;;		On exit  : 0/0
  7808 ;;		Unchanged: 0/0
  7809 ;; Data sizes:     COMRAM   BANK0   BANK1   BANK2   BANK3   BANK4   BANK5   BANK6   BANK7   BANK8   BANK9  BANK10  BANK1
      +1  BANK12  BANK13  BANK14  BANK15
  7810 ;;      Params:         0       0       0       0       0       0       0       0       0       0       0       0       
      +0       0       0       0       0
  7811 ;;      Locals:         0       0       0       0       0       0       0       0       0       0       0       0       
      +0       0       0       0       0
  7812 ;;      Temps:          0       0       0       0       0       0       0       0       0       0       0       0       
      +0       0       0       0       0
  7813 ;;      Totals:         0       0       0       0       0       0       0       0       0       0       0       0       
      +0       0       0       0       0
  7814 ;;Total ram usage:        0 bytes
  7815 ;; Hardware stack levels used: 1
  7816 ;; This function calls:
  7817 ;;		Nothing
  7818 ;; This function is called by:
  7819 ;;		_InterruptManager
  7820 ;; This function uses a non-reentrant model
  7821 ;;
  7822                           
  7823                           	psect	text50
  7824   003432                     __ptext50:
  7825                           	callstack 0
  7826   003432                     _CCP2_ISR:
  7827                           	callstack 23
  7828   003432                     
  7829                           ;MCAL_Layer/CCP/hal_ccp.c: 403:     (PIR2bits.CCP2IF = 0);
  7830   003432  90A1               	bcf	161,0,c	;volatile
  7831   003434  0012               	return		;funcret
  7832   003436                     __end_of_CCP2_ISR:
  7833                           	callstack 0
  7834                           
  7835 ;; *************** function _CCP1_ISR *****************
  7836 ;; Defined at:
  7837 ;;		line 388 in file "MCAL_Layer/CCP/hal_ccp.c"
  7838 ;; Parameters:    Size  Location     Type
  7839 ;;		None
  7840 ;; Auto vars:     Size  Location     Type
  7841 ;;		None
  7842 ;; Return value:  Size  Location     Type
  7843 ;;                  1    wreg      void 
  7844 ;; Registers used:
  7845 ;;		None
  7846 ;; Tracked objects:
  7847 ;;		On entry : 0/0
  7848 ;;		On exit  : 0/0
  7849 ;;		Unchanged: 0/0
  7850 ;; Data sizes:     COMRAM   BANK0   BANK1   BANK2   BANK3   BANK4   BANK5   BANK6   BANK7   BANK8   BANK9  BANK10  BANK1
      +1  BANK12  BANK13  BANK14  BANK15
  7851 ;;      Params:         0       0       0       0       0       0       0       0       0       0       0       0       
      +0       0       0       0       0
  7852 ;;      Locals:         0       0       0       0       0       0       0       0       0       0       0       0       
      +0       0       0       0       0
  7853 ;;      Temps:          0       0       0       0       0       0       0       0       0       0       0       0       
      +0       0       0       0       0
  7854 ;;      Totals:         0       0       0       0       0       0       0       0       0       0       0       0       
      +0       0       0       0       0
  7855 ;;Total ram usage:        0 bytes
  7856 ;; Hardware stack levels used: 1
  7857 ;; This function calls:
  7858 ;;		Nothing
  7859 ;; This function is called by:
  7860 ;;		_InterruptManager
  7861 ;; This function uses a non-reentrant model
  7862 ;;
  7863                           
  7864                           	psect	text51
  7865   003436                     __ptext51:
  7866                           	callstack 0
  7867   003436                     _CCP1_ISR:
  7868                           	callstack 23
  7869   003436                     
  7870                           ;MCAL_Layer/CCP/hal_ccp.c: 390:     (PIR1bits.CCP1IF = 0);
  7871   003436  949E               	bcf	158,2,c	;volatile
  7872   003438  0012               	return		;funcret
  7873   00343A                     __end_of_CCP1_ISR:
  7874                           	callstack 0
  7875                           
  7876 ;; *************** function _ADC_ISR *****************
  7877 ;; Defined at:
  7878 ;;		line 341 in file "MCAL_Layer/ADC/hal_adc.c"
  7879 ;; Parameters:    Size  Location     Type
  7880 ;;		None
  7881 ;; Auto vars:     Size  Location     Type
  7882 ;;		None
  7883 ;; Return value:  Size  Location     Type
  7884 ;;                  1    wreg      void 
  7885 ;; Registers used:
  7886 ;;		None
  7887 ;; Tracked objects:
  7888 ;;		On entry : 0/0
  7889 ;;		On exit  : 0/0
  7890 ;;		Unchanged: 0/0
  7891 ;; Data sizes:     COMRAM   BANK0   BANK1   BANK2   BANK3   BANK4   BANK5   BANK6   BANK7   BANK8   BANK9  BANK10  BANK1
      +1  BANK12  BANK13  BANK14  BANK15
  7892 ;;      Params:         0       0       0       0       0       0       0       0       0       0       0       0       
      +0       0       0       0       0
  7893 ;;      Locals:         0       0       0       0       0       0       0       0       0       0       0       0       
      +0       0       0       0       0
  7894 ;;      Temps:          0       0       0       0       0       0       0       0       0       0       0       0       
      +0       0       0       0       0
  7895 ;;      Totals:         0       0       0       0       0       0       0       0       0       0       0       0       
      +0       0       0       0       0
  7896 ;;Total ram usage:        0 bytes
  7897 ;; Hardware stack levels used: 1
  7898 ;; This function calls:
  7899 ;;		Nothing
  7900 ;; This function is called by:
  7901 ;;		_InterruptManager
  7902 ;; This function uses a non-reentrant model
  7903 ;;
  7904                           
  7905                           	psect	text52
  7906   00343A                     __ptext52:
  7907                           	callstack 0
  7908   00343A                     _ADC_ISR:
  7909                           	callstack 23
  7910   00343A                     
  7911                           ;MCAL_Layer/ADC/hal_adc.c: 343:     (PIR1bits.ADIF = 0);
  7912   00343A  9C9E               	bcf	158,6,c	;volatile
  7913   00343C  0012               	return		;funcret
  7914   00343E                     __end_of_ADC_ISR:
  7915                           	callstack 0
  7916                           
  7917                           	psect	text53
  7918   000000                     __ptext53:
  7919                           	callstack 0
  7920   000000                     
  7921                           	psect	rparam
  7922   000000                     
  7923                           	psect	temp
  7924   000066                     btemp:
  7925                           	callstack 0
  7926   000066                     	ds	1
  7927   000000                     int$flags	set	btemp
  7928   000000                     wtemp8	set	btemp+1
  7929   000000                     ttemp5	set	btemp+1
  7930   000000                     ttemp6	set	btemp+4
  7931   000000                     ttemp7	set	btemp+8
  7932                           
  7933                           	psect	idloc
  7934                           
  7935                           ;Config register IDLOC0 @ 0x200000
  7936                           ;	unspecified, using default values
  7937   200000                     	org	2097152
  7938   200000  FF                 	db	255
  7939                           
  7940                           ;Config register IDLOC1 @ 0x200001
  7941                           ;	unspecified, using default values
  7942   200001                     	org	2097153
  7943   200001  FF                 	db	255
  7944                           
  7945                           ;Config register IDLOC2 @ 0x200002
  7946                           ;	unspecified, using default values
  7947   200002                     	org	2097154
  7948   200002  FF                 	db	255
  7949                           
  7950                           ;Config register IDLOC3 @ 0x200003
  7951                           ;	unspecified, using default values
  7952   200003                     	org	2097155
  7953   200003  FF                 	db	255
  7954                           
  7955                           ;Config register IDLOC4 @ 0x200004
  7956                           ;	unspecified, using default values
  7957   200004                     	org	2097156
  7958   200004  FF                 	db	255
  7959                           
  7960                           ;Config register IDLOC5 @ 0x200005
  7961                           ;	unspecified, using default values
  7962   200005                     	org	2097157
  7963   200005  FF                 	db	255
  7964                           
  7965                           ;Config register IDLOC6 @ 0x200006
  7966                           ;	unspecified, using default values
  7967   200006                     	org	2097158
  7968   200006  FF                 	db	255
  7969                           
  7970                           ;Config register IDLOC7 @ 0x200007
  7971                           ;	unspecified, using default values
  7972   200007                     	org	2097159
  7973   200007  FF                 	db	255
  7974                           
  7975                           	psect	config
  7976                           
  7977                           ; Padding undefined space
  7978   300000                     	org	3145728
  7979   300000  FF                 	db	255
  7980                           
  7981                           ;Config register CONFIG1H @ 0x300001
  7982                           ;	Oscillator Selection bits
  7983                           ;	OSC = HS, HS oscillator
  7984                           ;	Fail-Safe Clock Monitor Enable bit
  7985                           ;	FCMEN = OFF, Fail-Safe Clock Monitor disabled
  7986                           ;	Internal/External Oscillator Switchover bit
  7987                           ;	IESO = OFF, Oscillator Switchover mode disabled
  7988   300001                     	org	3145729
  7989   300001  02                 	db	2
  7990                           
  7991                           ;Config register CONFIG2L @ 0x300002
  7992                           ;	Power-up Timer Enable bit
  7993                           ;	PWRT = OFF, PWRT disabled
  7994                           ;	Brown-out Reset Enable bits
  7995                           ;	BOREN = OFF, Brown-out Reset disabled in hardware and software
  7996                           ;	Brown Out Reset Voltage bits
  7997                           ;	BORV = 1, 
  7998   300002                     	org	3145730
  7999   300002  09                 	db	9
  8000                           
  8001                           ;Config register CONFIG2H @ 0x300003
  8002                           ;	Watchdog Timer Enable bit
  8003                           ;	WDT = OFF, WDT disabled (control is placed on the SWDTEN bit)
  8004                           ;	Watchdog Timer Postscale Select bits
  8005                           ;	WDTPS = 512, 1:512
  8006   300003                     	org	3145731
  8007   300003  12                 	db	18
  8008                           
  8009                           ; Padding undefined space
  8010   300004                     	org	3145732
  8011   300004  FF                 	db	255
  8012                           
  8013                           ;Config register CONFIG3H @ 0x300005
  8014                           ;	CCP2 MUX bit
  8015                           ;	CCP2MX = PORTC, CCP2 input/output is multiplexed with RC1
  8016                           ;	PORTB A/D Enable bit
  8017                           ;	PBADEN = OFF, PORTB<4:0> pins are configured as digital I/O on Reset
  8018                           ;	Low-Power Timer1 Oscillator Enable bit
  8019                           ;	LPT1OSC = OFF, Timer1 configured for higher power operation
  8020                           ;	MCLR Pin Enable bit
  8021                           ;	MCLRE = ON, MCLR pin enabled; RE3 input pin disabled
  8022   300005                     	org	3145733
  8023   300005  81                 	db	129
  8024                           
  8025                           ;Config register CONFIG4L @ 0x300006
  8026                           ;	Stack Full/Underflow Reset Enable bit
  8027                           ;	STVREN = ON, Stack full/underflow will cause Reset
  8028                           ;	Single-Supply ICSP Enable bit
  8029                           ;	LVP = OFF, Single-Supply ICSP disabled
  8030                           ;	Extended Instruction Set Enable bit
  8031                           ;	XINST = OFF, Instruction set extension and Indexed Addressing mode disabled (Legacy mo
      +                          de)
  8032                           ;	Background Debugger Enable bit
  8033                           ;	DEBUG = 0x1, unprogrammed default
  8034   300006                     	org	3145734
  8035   300006  81                 	db	129
  8036                           
  8037                           ; Padding undefined space
  8038   300007                     	org	3145735
  8039   300007  FF                 	db	255
  8040                           
  8041                           ;Config register CONFIG5L @ 0x300008
  8042                           ;	Code Protection bit
  8043                           ;	CP0 = OFF, Block 0 (000800-003FFFh) not code-protected
  8044                           ;	Code Protection bit
  8045                           ;	CP1 = OFF, Block 1 (004000-007FFFh) not code-protected
  8046                           ;	Code Protection bit
  8047                           ;	CP2 = OFF, Block 2 (008000-00BFFFh) not code-protected
  8048                           ;	Code Protection bit
  8049                           ;	CP3 = OFF, Block 3 (00C000-00FFFFh) not code-protected
  8050   300008                     	org	3145736
  8051   300008  0F                 	db	15
  8052                           
  8053                           ;Config register CONFIG5H @ 0x300009
  8054                           ;	Boot Block Code Protection bit
  8055                           ;	CPB = OFF, Boot block (000000-0007FFh) not code-protected
  8056                           ;	Data EEPROM Code Protection bit
  8057                           ;	CPD = OFF, Data EEPROM not code-protected
  8058   300009                     	org	3145737
  8059   300009  C0                 	db	192
  8060                           
  8061                           ;Config register CONFIG6L @ 0x30000A
  8062                           ;	Write Protection bit
  8063                           ;	WRT0 = OFF, Block 0 (000800-003FFFh) not write-protected
  8064                           ;	Write Protection bit
  8065                           ;	WRT1 = OFF, Block 1 (004000-007FFFh) not write-protected
  8066                           ;	Write Protection bit
  8067                           ;	WRT2 = OFF, Block 2 (008000-00BFFFh) not write-protected
  8068                           ;	Write Protection bit
  8069                           ;	WRT3 = OFF, Block 3 (00C000-00FFFFh) not write-protected
  8070   30000A                     	org	3145738
  8071   30000A  0F                 	db	15
  8072                           
  8073                           ;Config register CONFIG6H @ 0x30000B
  8074                           ;	Configuration Register Write Protection bit
  8075                           ;	WRTC = OFF, Configuration registers (300000-3000FFh) not write-protected
  8076                           ;	Boot Block Write Protection bit
  8077                           ;	WRTB = OFF, Boot Block (000000-0007FFh) not write-protected
  8078                           ;	Data EEPROM Write Protection bit
  8079                           ;	WRTD = OFF, Data EEPROM not write-protected
  8080   30000B                     	org	3145739
  8081   30000B  E0                 	db	224
  8082                           
  8083                           ;Config register CONFIG7L @ 0x30000C
  8084                           ;	Table Read Protection bit
  8085                           ;	EBTR0 = OFF, Block 0 (000800-003FFFh) not protected from table reads executed in other
      +                           blocks
  8086                           ;	Table Read Protection bit
  8087                           ;	EBTR1 = OFF, Block 1 (004000-007FFFh) not protected from table reads executed in other
      +                           blocks
  8088                           ;	Table Read Protection bit
  8089                           ;	EBTR2 = OFF, Block 2 (008000-00BFFFh) not protected from table reads executed in other
      +                           blocks
  8090                           ;	Table Read Protection bit
  8091                           ;	EBTR3 = OFF, Block 3 (00C000-00FFFFh) not protected from table reads executed in other
      +                           blocks
  8092   30000C                     	org	3145740
  8093   30000C  0F                 	db	15
  8094                           
  8095                           ;Config register CONFIG7H @ 0x30000D
  8096                           ;	Boot Block Table Read Protection bit
  8097                           ;	EBTRB = OFF, Boot Block (000000-0007FFh) not protected from table reads executed in ot
      +                          her blocks
  8098   30000D                     	org	3145741
  8099   30000D  40                 	db	64
  8100                           tosu	equ	0xFFF
  8101                           tosh	equ	0xFFE
  8102                           tosl	equ	0xFFD
  8103                           stkptr	equ	0xFFC
  8104                           pclatu	equ	0xFFB
  8105                           pclath	equ	0xFFA
  8106                           pcl	equ	0xFF9
  8107                           tblptru	equ	0xFF8
  8108                           tblptrh	equ	0xFF7
  8109                           tblptrl	equ	0xFF6
  8110                           tablat	equ	0xFF5
  8111                           prodh	equ	0xFF4
  8112                           prodl	equ	0xFF3
  8113                           indf0	equ	0xFEF
  8114                           postinc0	equ	0xFEE
  8115                           postdec0	equ	0xFED
  8116                           preinc0	equ	0xFEC
  8117                           plusw0	equ	0xFEB
  8118                           fsr0h	equ	0xFEA
  8119                           fsr0l	equ	0xFE9
  8120                           wreg	equ	0xFE8
  8121                           indf1	equ	0xFE7
  8122                           postinc1	equ	0xFE6
  8123                           postdec1	equ	0xFE5
  8124                           preinc1	equ	0xFE4
  8125                           plusw1	equ	0xFE3
  8126                           fsr1h	equ	0xFE2
  8127                           fsr1l	equ	0xFE1
  8128                           bsr	equ	0xFE0
  8129                           indf2	equ	0xFDF
  8130                           postinc2	equ	0xFDE
  8131                           postdec2	equ	0xFDD
  8132                           preinc2	equ	0xFDC
  8133                           plusw2	equ	0xFDB
  8134                           fsr2h	equ	0xFDA
  8135                           fsr2l	equ	0xFD9
  8136                           status	equ	0xFD8

Data Sizes:
    Strings     41
    Constant    16
    Data        52
    BSS         81
    Persistent  0
    Stack       0

Auto Spaces:
    Space          Size  Autos    Used
    COMRAM          126     70     101
    BANK0           128     25     127
    BANK1           256     18      18
    BANK2           256      0       0
    BANK3           256      0       0
    BANK4           256      0       0
    BANK5           256      0       0
    BANK6           256      0       0
    BANK7           256      0       0
    BANK8           256      0       0
    BANK9           256      0       0
    BANK10          256      0       0
    BANK11          256      0       0
    BANK12          256      0       0
    BANK13          256      0       0
    BANK14          256      0       0
    BANK15          128      0       0

Pointer List with Targets:

    vfprintf$2	PTR PTR void  size(2) Largest target is 2
		 -> sprintf@ap(COMRAM[2]), 

    vfprintf$1	PTR const unsigned char  size(2) Largest target is 3
		 -> STR_3(CODE[3]), STR_2(CODE[3]), STR_1(CODE[3]), 

    vfprintf$0	PTR struct _IO_FILE size(2) Largest target is 12
		 -> sprintf@f(COMRAM[12]), 

    CCP_PMW_MODE_CONFIG$0	PTR const struct . size(2) Largest target is 0

    S4634$source	PTR const unsigned char  size(2) Largest target is 0

    f...source	PTR const unsigned char  size(2) Largest target is 0

    S4634$buffer	PTR unsigned char  size(2) Largest target is 0

    f...buffer	PTR unsigned char  size(2) Largest target is 0

    usart_obj.USART_OverrunErrorHandler	PTR FTN()void  size(2) Largest target is 1
		 -> USART_OverrunDefaultErrorHandler(), NULL(NULL[0]), 

    usart_obj.USART_FramingErrorHandler	PTR FTN()void  size(2) Largest target is 1
		 -> USART_FramingDefaultErrorHandler(), NULL(NULL[0]), 

    usart_obj.USART_RxDefaultInterruptHandler	PTR FTN()void  size(2) Largest target is 1
		 -> USART_RxDefaultInterruptHandler(), NULL(NULL[0]), 

    usart_obj.USART_TxDefaultInterruptHandler	PTR FTN()void  size(2) Largest target is 1
		 -> USART_TxDefaultInterruptHandler(), NULL(NULL[0]), 

    usart_obj.USART_OverrunErrorHandler	PTR FTN()void  size(2) Largest target is 1
		 -> USART_OverrunDefaultErrorHandler(), NULL(NULL[0]), 

    usart_obj.USART_FramingErrorHandler	PTR FTN()void  size(2) Largest target is 1
		 -> USART_FramingDefaultErrorHandler(), NULL(NULL[0]), 

    usart_obj.USART_RxDefaultInterruptHandler	PTR FTN()void  size(2) Largest target is 1
		 -> USART_RxDefaultInterruptHandler(), NULL(NULL[0]), 

    usart_obj.USART_TxDefaultInterruptHandler	PTR FTN()void  size(2) Largest target is 1
		 -> USART_TxDefaultInterruptHandler(), NULL(NULL[0]), 

    USART_OverrunErrorHandler	PTR FTN()void  size(2) Largest target is 1
		 -> USART_OverrunDefaultErrorHandler(), NULL(), NULL(NULL[0]), 

    USART_FramingErrorHandler	PTR FTN()void  size(2) Largest target is 1
		 -> USART_FramingDefaultErrorHandler(), NULL(), NULL(NULL[0]), 

    USART_RxDefaultInterruptHandler@hal_usart$F3870	PTR FTN()void  size(2) Largest target is 1
		 -> USART_RxDefaultInterruptHandler(), NULL(), NULL(NULL[0]), 

    USART_ASYNCRONOUS_RX_Init@_usart.USART_OverrunErrorHandler	PTR FTN()void  size(2) Largest target is 1
		 -> USART_OverrunDefaultErrorHandler(), NULL(NULL[0]), 

    USART_ASYNCRONOUS_RX_Init@_usart.USART_FramingErrorHandler	PTR FTN()void  size(2) Largest target is 1
		 -> USART_FramingDefaultErrorHandler(), NULL(NULL[0]), 

    USART_ASYNCRONOUS_RX_Init@_usart.USART_RxDefaultInterruptHandler	PTR FTN()void  size(2) Largest target is 1
		 -> USART_RxDefaultInterruptHandler(), NULL(NULL[0]), 

    USART_ASYNCRONOUS_RX_Init@_usart.USART_TxDefaultInterruptHandler	PTR FTN()void  size(2) Largest target is 1
		 -> USART_TxDefaultInterruptHandler(), NULL(NULL[0]), 

    USART_ASYNCRONOUS_RX_Init@_usart	PTR const struct . size(2) Largest target is 18
		 -> usart_module_int_init@usart_obj(BANK1[18]), usart_module_init@usart_obj(COMRAM[18]), 

    USART_TxDefaultInterruptHandler@hal_usart$F3869	PTR FTN()void  size(2) Largest target is 1
		 -> USART_TxDefaultInterruptHandler(), NULL(), NULL(NULL[0]), 

    USART_ASYNCRONOUS_TX_Init@_usart.USART_OverrunErrorHandler	PTR FTN()void  size(2) Largest target is 1
		 -> USART_OverrunDefaultErrorHandler(), NULL(NULL[0]), 

    USART_ASYNCRONOUS_TX_Init@_usart.USART_FramingErrorHandler	PTR FTN()void  size(2) Largest target is 1
		 -> USART_FramingDefaultErrorHandler(), NULL(NULL[0]), 

    USART_ASYNCRONOUS_TX_Init@_usart.USART_RxDefaultInterruptHandler	PTR FTN()void  size(2) Largest target is 1
		 -> USART_RxDefaultInterruptHandler(), NULL(NULL[0]), 

    USART_ASYNCRONOUS_TX_Init@_usart.USART_TxDefaultInterruptHandler	PTR FTN()void  size(2) Largest target is 1
		 -> USART_TxDefaultInterruptHandler(), NULL(NULL[0]), 

    USART_ASYNCRONOUS_TX_Init@_usart	PTR const struct . size(2) Largest target is 18
		 -> usart_module_int_init@usart_obj(BANK1[18]), usart_module_init@usart_obj(COMRAM[18]), 

    S3608$USART_OverrunErrorHandler	PTR FTN()void  size(2) Largest target is 1
		 -> USART_OverrunDefaultErrorHandler(), NULL(NULL[0]), 

    USART_Baud_Rate_Calculation@_usart.USART_OverrunErrorHandler	PTR FTN()void  size(2) Largest target is 1
		 -> USART_OverrunDefaultErrorHandler(), NULL(NULL[0]), 

    S3608$USART_FramingErrorHandler	PTR FTN()void  size(2) Largest target is 1
		 -> USART_FramingDefaultErrorHandler(), NULL(NULL[0]), 

    USART_Baud_Rate_Calculation@_usart.USART_FramingErrorHandler	PTR FTN()void  size(2) Largest target is 1
		 -> USART_FramingDefaultErrorHandler(), NULL(NULL[0]), 

    S3608$USART_RxDefaultInterruptHandler	PTR FTN()void  size(2) Largest target is 1
		 -> USART_RxDefaultInterruptHandler(), NULL(NULL[0]), 

    USART_Baud_Rate_Calculation@_usart.USART_RxDefaultInterruptHandler	PTR FTN()void  size(2) Largest target is 1
		 -> USART_RxDefaultInterruptHandler(), NULL(NULL[0]), 

    S3608$USART_TxDefaultInterruptHandler	PTR FTN()void  size(2) Largest target is 1
		 -> USART_TxDefaultInterruptHandler(), NULL(NULL[0]), 

    USART_Baud_Rate_Calculation@_usart.USART_TxDefaultInterruptHandler	PTR FTN()void  size(2) Largest target is 1
		 -> USART_TxDefaultInterruptHandler(), NULL(NULL[0]), 

    USART_Baud_Rate_Calculation@_usart	PTR const struct . size(2) Largest target is 18
		 -> usart_module_int_init@usart_obj(BANK1[18]), usart_module_init@usart_obj(COMRAM[18]), 

    USART_Asynchronous_WriteString_Blocking@_data	PTR unsigned char  size(2) Largest target is 10
		 -> STR_7(CODE[10]), STR_6(CODE[9]), STR_5(CODE[10]), STR_4(CODE[9]), 

    USART_Asynchronous_ReadByte_NonBlocking@_data	PTR unsigned char  size(2) Largest target is 1
		 -> receive_usart_data(COMRAM[1]), USART_FramingDefaultErrorHandler@_data_(COMRAM[1]), 

    USART_Asynchronous_Initialize@_usart	PTR const struct . size(2) Largest target is 18
		 -> usart_module_int_init@usart_obj(BANK1[18]), usart_module_init@usart_obj(COMRAM[18]), 

    Timer3_Mode_Selection@_timer.TMR3_InterruptHandler	PTR FTN()void  size(2) Largest target is 0

    TMR3_InterruptHandler	PTR FTN()void  size(2) Largest target is 1
		 -> NULL(), 

    S3414$TMR3_InterruptHandler	PTR FTN()void  size(2) Largest target is 0

    Timer3_Init@_timer.TMR3_InterruptHandler	PTR FTN()void  size(2) Largest target is 0

    TMR2_InterruptHandler	PTR FTN()void  size(2) Largest target is 1
		 -> NULL(), 

    S3283$TMR2_InterruptHandler	PTR FTN()void  size(2) Largest target is 0

    Timer2_Init@_timer.TMR2_InterruptHandler	PTR FTN()void  size(2) Largest target is 0

    Timer1_Mode_Selection@_timer.TMR1_InterruptHandler	PTR FTN()void  size(2) Largest target is 0

    TMR1_InterruptHandler	PTR FTN()void  size(2) Largest target is 1
		 -> NULL(), 

    S3094$TMR1_InterruptHandler	PTR FTN()void  size(2) Largest target is 0

    Timer1_Init@_timer.TMR1_InterruptHandler	PTR FTN()void  size(2) Largest target is 0

    Timer0_Reigster_Size_Config@_timer.TMR0_InterruptHandler	PTR FTN()void  size(2) Largest target is 0

    Timer0_Mode_Selection@_timer.TMR0_InterruptHandler	PTR FTN()void  size(2) Largest target is 0

    Timer0_Prescaler_Config@_timer.TMR0_InterruptHandler	PTR FTN()void  size(2) Largest target is 0

    TMR0_InterruptHandler	PTR FTN()void  size(2) Largest target is 1
		 -> NULL(), 

    S2929$TMR0_InterruptHandler	PTR FTN()void  size(2) Largest target is 0

    Timer0_Init@_timer.TMR0_InterruptHandler	PTR FTN()void  size(2) Largest target is 0

    Interrupt_INTx_SetInterruptHandler@int_obj.EXT_InterruptHandler	PTR FTN()void  size(2) Largest target is 0

    Interrupt_INTx_Clear_Flag@int_obj.EXT_InterruptHandler	PTR FTN()void  size(2) Largest target is 0

    Interrupt_INTx_Pin_Init@int_obj.EXT_InterruptHandler	PTR FTN()void  size(2) Largest target is 0

    Interrupt_INTx_Edge_Init@int_obj.EXT_InterruptHandler	PTR FTN()void  size(2) Largest target is 0

    Interrupt_INTx_Disable@int_obj.EXT_InterruptHandler	PTR FTN()void  size(2) Largest target is 0

    S2321$EXT_InterruptHandler	PTR FTN()void  size(2) Largest target is 0

    Interrupt_INTx_Enable@int_obj.EXT_InterruptHandler	PTR FTN()void  size(2) Largest target is 0

    S2437$EXT_InterruptHandler_LOW	PTR FTN()void  size(2) Largest target is 0

    Interrupt_RBx_Init@int_obj.EXT_InterruptHandler_LOW	PTR FTN()void  size(2) Largest target is 0

    S2437$EXT_InterruptHandler_HIGH	PTR FTN()void  size(2) Largest target is 0

    Interrupt_RBx_Init@int_obj.EXT_InterruptHandler_HIGH	PTR FTN()void  size(2) Largest target is 0

    RB7_InterruptHandler_LOW	PTR FTN()void  size(2) Largest target is 1
		 -> NULL(), 

    RB7_InterruptHandler_HIGH	PTR FTN()void  size(2) Largest target is 1
		 -> NULL(), 

    RB6_InterruptHandler_LOW	PTR FTN()void  size(2) Largest target is 1
		 -> NULL(), 

    RB6_InterruptHandler_HIGH	PTR FTN()void  size(2) Largest target is 1
		 -> NULL(), 

    RB5_InterruptHandler_LOW	PTR FTN()void  size(2) Largest target is 1
		 -> NULL(), 

    RB5_InterruptHandler_HIGH	PTR FTN()void  size(2) Largest target is 1
		 -> NULL(), 

    RB4_InterruptHandler_LOW	PTR FTN()void  size(2) Largest target is 1
		 -> NULL(), 

    RB4_InterruptHandler_HIGH	PTR FTN()void  size(2) Largest target is 1
		 -> NULL(), 

    INT2_InterruptHandler	PTR FTN()void  size(2) Largest target is 1
		 -> NULL(), 

    INT1_InterruptHandler	PTR FTN()void  size(2) Largest target is 1
		 -> NULL(), 

    INT0_InterruptHandler	PTR FTN()void  size(2) Largest target is 1
		 -> NULL(), 

    MSSP_I2C_Bus_Collision_Interrupt_Configurations@_i2c.MSSP_I2C_Report_Receive_Overflow	PTR FTN()void  size(2) Largest target is 0

    MSSP_I2C_Bus_Collision_Interrupt_Configurations@_i2c.MSSP_I2C_Report_Write_Collision	PTR FTN()void  size(2) Largest target is 0

    MSSP_I2C_Bus_Collision_Interrupt_Configurations@_i2c.MSSP_I2C_DefaultInterruptHandler	PTR FTN()void  size(2) Largest target is 0

    MSSP_I2C_Interrupt_Configurations@_i2c.MSSP_I2C_Report_Receive_Overflow	PTR FTN()void  size(2) Largest target is 0

    MSSP_I2C_Interrupt_Configurations@_i2c.MSSP_I2C_Report_Write_Collision	PTR FTN()void  size(2) Largest target is 0

    MSSP_I2C_Interrupt_Configurations@_i2c.MSSP_I2C_DefaultInterruptHandler	PTR FTN()void  size(2) Largest target is 0

    MSSP_I2C_Report_Receive_Overflow_InterruptHandler	PTR FTN()void  size(2) Largest target is 1
		 -> NULL(), 

    MSSP_I2C_Slave_Mode_Configurations@_i2c.MSSP_I2C_Report_Receive_Overflow	PTR FTN()void  size(2) Largest target is 0

    MSSP_I2C_Slave_Mode_Configurations@_i2c.MSSP_I2C_Report_Write_Collision	PTR FTN()void  size(2) Largest target is 0

    MSSP_I2C_Slave_Mode_Configurations@_i2c.MSSP_I2C_DefaultInterruptHandler	PTR FTN()void  size(2) Largest target is 0

    MSSP_I2C_Master_Mode_Clock_Configurations@_i2c.MSSP_I2C_Report_Receive_Overflow	PTR FTN()void  size(2) Largest target is 0

    MSSP_I2C_Master_Mode_Clock_Configurations@_i2c.MSSP_I2C_Report_Write_Collision	PTR FTN()void  size(2) Largest target is 0

    MSSP_I2C_Master_Mode_Clock_Configurations@_i2c.MSSP_I2C_DefaultInterruptHandler	PTR FTN()void  size(2) Largest target is 0

    MSSP_I2C_Report_Write_Collision_InterruptHandler	PTR FTN()void  size(2) Largest target is 1
		 -> NULL(), 

    MSSP_I2C_DefaultInterruptHandler	PTR FTN()void  size(2) Largest target is 1
		 -> NULL(), 

    S1796$MSSP_I2C_Report_Receive_Overflow	PTR FTN()void  size(2) Largest target is 0

    MSSP_I2C_Initialize@_i2c.MSSP_I2C_Report_Receive_Overflow	PTR FTN()void  size(2) Largest target is 0

    S1796$MSSP_I2C_Report_Write_Collision	PTR FTN()void  size(2) Largest target is 0

    MSSP_I2C_Initialize@_i2c.MSSP_I2C_Report_Write_Collision	PTR FTN()void  size(2) Largest target is 0

    S1796$MSSP_I2C_DefaultInterruptHandler	PTR FTN()void  size(2) Largest target is 0

    MSSP_I2C_Initialize@_i2c.MSSP_I2C_DefaultInterruptHandler	PTR FTN()void  size(2) Largest target is 0

    gpio_pin_intialize@_pin_config	PTR const struct . size(2) Largest target is 10
		 -> lcd_2.lcd_data(BANK0[8]), lcd_2(BANK0[10]), lcd_1.lcd_data(BANK0[4]), lcd_1(BANK0[6]), 
		 -> relay_initialize@pin_obj(COMRAM[1]), led_initialize@pin_obj(COMRAM[1]), 

    gpio_pin_write_logic@_pin_config	PTR const struct . size(2) Largest target is 10
		 -> lcd_2.lcd_data(BANK0[8]), lcd_2(BANK0[10]), lcd_1.lcd_data(BANK0[4]), lcd_1(BANK0[6]), 
		 -> relay_turn_off@pin_obj(COMRAM[1]), relay_turn_on@pin_obj(COMRAM[1]), relay_initialize@pin_obj(COMRAM[1]), led_turn_off@pin_obj(COMRAM[1]), 
		 -> led_turn_on@pin_obj(COMRAM[1]), led_initialize@pin_obj(COMRAM[1]), 

    gpio_pin_direction_intialize@_pin_config	PTR const struct . size(2) Largest target is 10
		 -> lcd_2.lcd_data(BANK0[8]), lcd_2(BANK0[10]), lcd_1.lcd_data(BANK0[4]), lcd_1(BANK0[6]), 
		 -> relay_initialize@pin_obj(COMRAM[1]), led_initialize@pin_obj(COMRAM[1]), 

    port_registers	PTR volatile unsigned char [5] size(2) Largest target is 1
		 -> PORTE(BITBIGSFRlllll[1]), PORTD(BITBIGSFRlllll[1]), PORTC(BITBIGSFRlllll[1]), PORTB(BITBIGSFRlllll[1]), 
		 -> PORTA(BITBIGSFRlllll[1]), 

    lat_registers	PTR volatile unsigned char [5] size(2) Largest target is 1
		 -> LATE(BITBIGSFRllllh[1]), LATD(BITBIGSFRllllh[1]), LATC(BITBIGSFRllllh[1]), LATB(BITBIGSFRllllh[1]), 
		 -> LATA(BITBIGSFRlllll[1]), 

    tris_registers	PTR volatile unsigned char [5] size(2) Largest target is 1
		 -> TRISD(ABS[1]), TRISC(ABS[1]), TRISB(ABS[1]), TRISE(ABS[1]), 
		 -> TRISA(BITBIGSFRlllll[1]), 

    CCP_Compare_Mode_Config@_ccp_obj.CCP2_InterruptHandler	PTR FTN()void  size(2) Largest target is 0

    CCP_Compare_Mode_Config@_ccp_obj.CCP1_InterruptHandler	PTR FTN()void  size(2) Largest target is 0

    CCP_Capture_Mode_Config@_ccp_obj.CCP2_InterruptHandler	PTR FTN()void  size(2) Largest target is 0

    CCP_Capture_Mode_Config@_ccp_obj.CCP1_InterruptHandler	PTR FTN()void  size(2) Largest target is 0

    CCP_Mode_Timer_Selection@_ccp_obj.CCP2_InterruptHandler	PTR FTN()void  size(2) Largest target is 0

    CCP_Mode_Timer_Selection@_ccp_obj.CCP1_InterruptHandler	PTR FTN()void  size(2) Largest target is 0

    CCP_Interrupt_Config@_ccp_obj.CCP2_InterruptHandler	PTR FTN()void  size(2) Largest target is 0

    CCP_Interrupt_Config@_ccp_obj.CCP1_InterruptHandler	PTR FTN()void  size(2) Largest target is 0

    CCP2_InterruptHandler	PTR FTN()void  size(2) Largest target is 1
		 -> NULL(), 

    CCP1_InterruptHandler	PTR FTN()void  size(2) Largest target is 1
		 -> NULL(), 

    CCP_Set_Compare_Mode_Value@_ccp_obj.CCP2_InterruptHandler	PTR FTN()void  size(2) Largest target is 0

    CCP_Set_Compare_Mode_Value@_ccp_obj.CCP1_InterruptHandler	PTR FTN()void  size(2) Largest target is 0

    CCP_DeInit@_ccp_obj.CCP2_InterruptHandler	PTR FTN()void  size(2) Largest target is 0

    CCP_DeInit@_ccp_obj.CCP1_InterruptHandler	PTR FTN()void  size(2) Largest target is 0

    S1142$CCP2_InterruptHandler	PTR FTN()void  size(2) Largest target is 0

    CCP_Init@_ccp_obj.CCP2_InterruptHandler	PTR FTN()void  size(2) Largest target is 0

    S1142$CCP1_InterruptHandler	PTR FTN()void  size(2) Largest target is 0

    CCP_Init@_ccp_obj.CCP1_InterruptHandler	PTR FTN()void  size(2) Largest target is 0

    configure_voltage_reference@_adc.ADC_InterruptHandler	PTR FTN()void  size(2) Largest target is 0

    select_result_format@_adc.ADC_InterruptHandler	PTR FTN()void  size(2) Largest target is 0

    ADC_GetConversionResult@_adc.ADC_InterruptHandler	PTR FTN()void  size(2) Largest target is 0

    ADC_InterruptHandler	PTR FTN()void  size(2) Largest target is 1
		 -> NULL(), 

    S723$ADC_InterruptHandler	PTR FTN()void  size(2) Largest target is 0

    ADC_Init@_adc.ADC_InterruptHandler	PTR FTN()void  size(2) Largest target is 0

    led_turn_off@led	PTR const struct . size(2) Largest target is 1
		 -> led2(COMRAM[1]), led1(COMRAM[1]), 

    led_turn_on@led	PTR const struct . size(2) Largest target is 1
		 -> led2(COMRAM[1]), led1(COMRAM[1]), 

    led_initialize@led	PTR const struct . size(2) Largest target is 1
		 -> led2(COMRAM[1]), led1(COMRAM[1]), 

    lcd_8bit_send_enable_signal@lcd	PTR const struct . size(2) Largest target is 10
		 -> lcd_2(BANK0[10]), 

    lcd_4bit_send_enable_signal@lcd	PTR const struct . size(2) Largest target is 6
		 -> lcd_1(BANK0[6]), 

    lcd_send_4bits@lcd	PTR const struct . size(2) Largest target is 6
		 -> lcd_1(BANK0[6]), 

    sp__memset	PTR void  size(2) Largest target is 0

    lcd_8bit_send_command@lcd	PTR const struct . size(2) Largest target is 10
		 -> lcd_2(BANK0[10]), 

    lcd_8bit_intialize@lcd	PTR const struct . size(2) Largest target is 10
		 -> lcd_2(BANK0[10]), 

    lcd_4bit_send_command@lcd	PTR const struct . size(2) Largest target is 6
		 -> lcd_1(BANK0[6]), 

    lcd_4bit_intialize@lcd	PTR const struct . size(2) Largest target is 6
		 -> lcd_1(BANK0[6]), 


Critical Paths under _main in COMRAM

    _USART_Asynchronous_Initialize->_USART_Baud_Rate_Calculation
    _USART_Baud_Rate_Calculation->___fladd
    ___fldiv->___xxtofl
    ___fladd->___fldiv
    _led_initialize->_gpio_pin_intialize
    _ecu_layer_intialize->_lcd_8bit_intialize
    _lcd_8bit_intialize->_lcd_8bit_send_command
    _lcd_8bit_send_command->_lcd_8bit_send_enable_signal
    _lcd_8bit_send_enable_signal->_gpio_pin_write_logic
    _lcd_4bit_intialize->_lcd_4bit_send_command
    _lcd_4bit_send_command->_lcd_send_4bits
    _lcd_send_4bits->_gpio_pin_write_logic
    _lcd_4bit_send_enable_signal->_gpio_pin_write_logic
    _gpio_pin_intialize->_gpio_pin_write_logic

Critical Paths under _InterruptManager in COMRAM

    _USART_RX_ISR->_USART_RxDefaultInterruptHandler
    _USART_RxDefaultInterruptHandler->_led_turn_off
    _USART_RxDefaultInterruptHandler->_led_turn_on
    _led_turn_on->i2_gpio_pin_write_logic
    _led_turn_off->i2_gpio_pin_write_logic
    _USART_Asynchronous_WriteString_Blocking->_USART_Asynchronous_WriteByte_Blocking
    _USART_FramingDefaultErrorHandler->_USART_Asynchronous_ReadByte_NonBlocking

Critical Paths under _main in BANK0

    _usart_module_int_init->_USART_Asynchronous_Initialize
    _USART_Asynchronous_Initialize->_USART_Baud_Rate_Calculation
    _USART_Baud_Rate_Calculation->___fladd

Critical Paths under _InterruptManager in BANK0

    None.

Critical Paths under _main in BANK1

    _main->_usart_module_int_init

Critical Paths under _InterruptManager in BANK1

    None.

Critical Paths under _main in BANK2

    None.

Critical Paths under _InterruptManager in BANK2

    None.

Critical Paths under _main in BANK3

    None.

Critical Paths under _InterruptManager in BANK3

    None.

Critical Paths under _main in BANK4

    None.

Critical Paths under _InterruptManager in BANK4

    None.

Critical Paths under _main in BANK5

    None.

Critical Paths under _InterruptManager in BANK5

    None.

Critical Paths under _main in BANK6

    None.

Critical Paths under _InterruptManager in BANK6

    None.

Critical Paths under _main in BANK7

    None.

Critical Paths under _InterruptManager in BANK7

    None.

Critical Paths under _main in BANK8

    None.

Critical Paths under _InterruptManager in BANK8

    None.

Critical Paths under _main in BANK9

    None.

Critical Paths under _InterruptManager in BANK9

    None.

Critical Paths under _main in BANK10

    None.

Critical Paths under _InterruptManager in BANK10

    None.

Critical Paths under _main in BANK11

    None.

Critical Paths under _InterruptManager in BANK11

    None.

Critical Paths under _main in BANK12

    None.

Critical Paths under _InterruptManager in BANK12

    None.

Critical Paths under _main in BANK13

    None.

Critical Paths under _InterruptManager in BANK13

    None.

Critical Paths under _main in BANK14

    None.

Critical Paths under _InterruptManager in BANK14

    None.

Critical Paths under _main in BANK15

    None.

Critical Paths under _InterruptManager in BANK15

    None.

Call Graph Tables:

 ---------------------------------------------------------------------------------
 (Depth) Function   	        Calls       Base Space   Used Autos Params    Refs
 ---------------------------------------------------------------------------------
 (0) _main                                                 1     1      0   62521
              _application_intialize
                     _led_initialize
              _usart_module_int_init
 ---------------------------------------------------------------------------------
 (1) _usart_module_int_init                               19    19      0   11142
                                              0 BANK1     18    18      0
      _USART_Asynchronous_Initialize
 ---------------------------------------------------------------------------------
 (2) _USART_Asynchronous_Initialize                        3     1      2   10650
                                             22 BANK0      3     1      2
          _USART_ASYNCRONOUS_RX_Init
          _USART_ASYNCRONOUS_TX_Init
        _USART_Baud_Rate_Calculation
 ---------------------------------------------------------------------------------
 (3) _USART_Baud_Rate_Calculation                         12    10      2    9692
                                             68 COMRAM     2     0      2
                                             12 BANK0     10    10      0
                            ___fladd
                            ___fldiv
                            ___fltol
                           ___xxtofl
 ---------------------------------------------------------------------------------
 (4) ___xxtofl                                            14    10      4     926
                                             25 COMRAM    14    10      4
 ---------------------------------------------------------------------------------
 (4) ___fltol                                             10     6      4     607
                                             25 COMRAM    10     6      4
 ---------------------------------------------------------------------------------
 (4) ___fldiv                                             25    17      8    3443
                                             39 COMRAM    25    17      8
                           ___xxtofl (ARG)
 ---------------------------------------------------------------------------------
 (4) ___fladd                                             16     8      8    4122
                                             64 COMRAM     4     4      0
                                              0 BANK0     12     4      8
                            ___fldiv (ARG)
                           ___xxtofl (ARG)
 ---------------------------------------------------------------------------------
 (3) _USART_ASYNCRONOUS_TX_Init                            2     0      2     276
                                             25 COMRAM     2     0      2
 ---------------------------------------------------------------------------------
 (3) _USART_ASYNCRONOUS_RX_Init                            2     0      2     338
                                             25 COMRAM     2     0      2
 ---------------------------------------------------------------------------------
 (1) _led_initialize                                       5     3      2    7007
                                             39 COMRAM     5     3      2
                 _gpio_pin_intialize
 ---------------------------------------------------------------------------------
 (1) _application_intialize                                1     1      0   44363
                _ecu_layer_intialize
 ---------------------------------------------------------------------------------
 (2) _ecu_layer_intialize                                  1     1      0   44362
                 _lcd_4bit_intialize
                 _lcd_8bit_intialize
 ---------------------------------------------------------------------------------
 (3) _lcd_8bit_intialize                                   6     4      2   19316
                                             47 COMRAM     6     4      2
                 _gpio_pin_intialize
              _lcd_8bit_send_command
 ---------------------------------------------------------------------------------
 (4) _lcd_8bit_send_command                                9     6      3   12151
                                             38 COMRAM     9     6      3
               _gpio_pin_write_logic
        _lcd_8bit_send_enable_signal
 ---------------------------------------------------------------------------------
 (5) _lcd_8bit_send_enable_signal                          3     1      2    5008
                                             35 COMRAM     3     1      2
               _gpio_pin_write_logic
 ---------------------------------------------------------------------------------
 (3) _lcd_4bit_intialize                                   6     4      2   25043
                                             43 COMRAM     6     4      2
                 _gpio_pin_intialize
              _lcd_4bit_send_command
 ---------------------------------------------------------------------------------
 (4) _lcd_4bit_send_command                                4     1      3   17878
                                             39 COMRAM     4     1      3
               _gpio_pin_write_logic
        _lcd_4bit_send_enable_signal
                     _lcd_send_4bits
 ---------------------------------------------------------------------------------
 (5) _lcd_send_4bits                                       4     1      3    5598
                                             35 COMRAM     4     1      3
               _gpio_pin_write_logic
 ---------------------------------------------------------------------------------
 (5) _lcd_4bit_send_enable_signal                          3     1      2    5160
                                             35 COMRAM     3     1      2
               _gpio_pin_write_logic
 ---------------------------------------------------------------------------------
 (2) _gpio_pin_intialize                                   4     2      2    6698
                                             35 COMRAM     4     2      2
       _gpio_pin_direction_intialize
               _gpio_pin_write_logic
 ---------------------------------------------------------------------------------
 (3) _gpio_pin_write_logic                                10     7      3    4787
                                             25 COMRAM    10     7      3
 ---------------------------------------------------------------------------------
 (3) _gpio_pin_direction_intialize                         9     7      2     559
                                             25 COMRAM     9     7      2
 ---------------------------------------------------------------------------------
 Estimated maximum stack depth 5
 ---------------------------------------------------------------------------------
 (Depth) Function   	        Calls       Base Space   Used Autos Params    Refs
 ---------------------------------------------------------------------------------
 (7) _InterruptManager                                    10    10      0    2633
                                             15 COMRAM    10    10      0
                            _ADC_ISR
                           _CCP1_ISR
                           _CCP2_ISR
                           _INT0_ISR
                           _INT1_ISR
                           _INT2_ISR
                    _MSSP_I2C_BC_ISR
                       _MSSP_I2C_ISR
                            _RB4_ISR
                            _RB5_ISR
                            _RB6_ISR
                            _RB7_ISR
                           _TMR0_ISR
                           _TMR1_ISR
                           _TMR2_ISR
                           _TMR3_ISR
                       _USART_RX_ISR
                       _USART_TX_ISR
 ---------------------------------------------------------------------------------
 (8) _USART_TX_ISR                                         0     0      0       0
                                NULL *
    _USART_TxDefaultInterruptHandler *
 ---------------------------------------------------------------------------------
 (9) _USART_TxDefaultInterruptHandler                      0     0      0       0
 ---------------------------------------------------------------------------------
 (8) _USART_RX_ISR                                         0     0      0    2457
                                NULL *
   _USART_FramingDefaultErrorHandler *
   _USART_OverrunDefaultErrorHandler *
    _USART_RxDefaultInterruptHandler *
 ---------------------------------------------------------------------------------
 (9) _USART_RxDefaultInterruptHandler                      3     3      0    2229
                                             13 COMRAM     2     2      0
_USART_Asynchronous_ReadByte_NonBloc
_USART_Asynchronous_WriteString_Bloc
                       _led_turn_off
                        _led_turn_on
 ---------------------------------------------------------------------------------
 (10) _led_turn_on                                         5     3      2     552
                                              9 COMRAM     4     2      2
             i2_gpio_pin_write_logic
 ---------------------------------------------------------------------------------
 (10) _led_turn_off                                        5     3      2     704
                                              9 COMRAM     4     2      2
             i2_gpio_pin_write_logic
 ---------------------------------------------------------------------------------
 (11) i2_gpio_pin_write_logic                             10     7      3     267
                                              0 COMRAM     9     6      3
 ---------------------------------------------------------------------------------
 (10) _USART_Asynchronous_WriteString_Blocking             9     5      4     768
                                              1 COMRAM     9     5      4
_USART_Asynchronous_WriteByte_Blocki
 ---------------------------------------------------------------------------------
 (11) _USART_Asynchronous_WriteByte_Blocking               2     2      0      45
                                              0 COMRAM     1     1      0
 ---------------------------------------------------------------------------------
 (9) _USART_OverrunDefaultErrorHandler                     0     0      0       5
      _USART_Asynchronous_Restart_RX
 ---------------------------------------------------------------------------------
 (10) _USART_Asynchronous_Restart_RX                       1     1      0       5
 ---------------------------------------------------------------------------------
 (9) _USART_FramingDefaultErrorHandler                     1     1      0     223
                                              3 COMRAM     1     1      0
_USART_Asynchronous_ReadByte_NonBloc
 ---------------------------------------------------------------------------------
 (10) _USART_Asynchronous_ReadByte_NonBlocking             3     1      2     199
                                              0 COMRAM     3     1      2
 ---------------------------------------------------------------------------------
 (9) NULL(Fake)                                            0     0      0       0
 ---------------------------------------------------------------------------------
 (8) _TMR3_ISR                                             0     0      0       0
 ---------------------------------------------------------------------------------
 (8) _TMR2_ISR                                             0     0      0       0
 ---------------------------------------------------------------------------------
 (8) _TMR1_ISR                                             0     0      0       0
 ---------------------------------------------------------------------------------
 (8) _TMR0_ISR                                             0     0      0       0
 ---------------------------------------------------------------------------------
 (8) _RB7_ISR                                              1     1      0      44
                                              0 COMRAM     1     1      0
 ---------------------------------------------------------------------------------
 (8) _RB6_ISR                                              1     1      0      44
                                              0 COMRAM     1     1      0
 ---------------------------------------------------------------------------------
 (8) _RB5_ISR                                              1     1      0      44
                                              0 COMRAM     1     1      0
 ---------------------------------------------------------------------------------
 (8) _RB4_ISR                                              1     1      0      44
                                              0 COMRAM     1     1      0
 ---------------------------------------------------------------------------------
 (8) _MSSP_I2C_ISR                                         0     0      0       0
 ---------------------------------------------------------------------------------
 (8) _MSSP_I2C_BC_ISR                                      0     0      0       0
 ---------------------------------------------------------------------------------
 (8) _INT2_ISR                                             0     0      0       0
 ---------------------------------------------------------------------------------
 (8) _INT1_ISR                                             0     0      0       0
 ---------------------------------------------------------------------------------
 (8) _INT0_ISR                                             0     0      0       0
 ---------------------------------------------------------------------------------
 (8) _CCP2_ISR                                             0     0      0       0
 ---------------------------------------------------------------------------------
 (8) _CCP1_ISR                                             0     0      0       0
 ---------------------------------------------------------------------------------
 (8) _ADC_ISR                                              0     0      0       0
 ---------------------------------------------------------------------------------
 Estimated maximum stack depth 11
 ---------------------------------------------------------------------------------

 Call Graph Graphs:

 _main (ROOT)
   _application_intialize
     _ecu_layer_intialize
       _lcd_4bit_intialize
         _gpio_pin_intialize
           _gpio_pin_direction_intialize
           _gpio_pin_write_logic
         _lcd_4bit_send_command
           _gpio_pin_write_logic
           _lcd_4bit_send_enable_signal
             _gpio_pin_write_logic
           _lcd_send_4bits
             _gpio_pin_write_logic
       _lcd_8bit_intialize
         _gpio_pin_intialize
         _lcd_8bit_send_command
           _gpio_pin_write_logic
           _lcd_8bit_send_enable_signal
             _gpio_pin_write_logic
   _led_initialize
     _gpio_pin_intialize
   _usart_module_int_init
     _USART_Asynchronous_Initialize
       _USART_ASYNCRONOUS_RX_Init
       _USART_ASYNCRONOUS_TX_Init
       _USART_Baud_Rate_Calculation
         ___fladd
           ___fldiv (ARG)
             ___xxtofl (ARG)
           ___xxtofl (ARG)
         ___fldiv
         ___fltol
         ___xxtofl

 _InterruptManager (ROOT)
   _ADC_ISR
   _CCP1_ISR
   _CCP2_ISR
   _INT0_ISR
   _INT1_ISR
   _INT2_ISR
   _MSSP_I2C_BC_ISR
   _MSSP_I2C_ISR
   _RB4_ISR
   _RB5_ISR
   _RB6_ISR
   _RB7_ISR
   _TMR0_ISR
   _TMR1_ISR
   _TMR2_ISR
   _TMR3_ISR
   _USART_RX_ISR
     NULL(Fake) *
     _USART_FramingDefaultErrorHandler *
       _USART_Asynchronous_ReadByte_NonBlocking
     _USART_OverrunDefaultErrorHandler *
       _USART_Asynchronous_Restart_RX
     _USART_RxDefaultInterruptHandler *
       _USART_Asynchronous_ReadByte_NonBlocking
       _USART_Asynchronous_WriteString_Blocking
         _USART_Asynchronous_WriteByte_Blocking
       _led_turn_off
         i2_gpio_pin_write_logic
       _led_turn_on
         i2_gpio_pin_write_logic
   _USART_TX_ISR
     NULL(Fake) *
     _USART_TxDefaultInterruptHandler *

 Address spaces:
Name               Size   Autos  Total    Cost      Usage
BIGRAM             F7F      0       0      48        0.0%
EEDATA             400      0       0       0        0.0%
BITBANK14          100      0       0      32        0.0%
BANK14             100      0       0      33        0.0%
BITBANK13          100      0       0      30        0.0%
BANK13             100      0       0      31        0.0%
BITBANK12          100      0       0      28        0.0%
BANK12             100      0       0      29        0.0%
BITBANK11          100      0       0      26        0.0%
BANK11             100      0       0      27        0.0%
BITBANK10          100      0       0      24        0.0%
BANK10             100      0       0      25        0.0%
BITBANK9           100      0       0      22        0.0%
BANK9              100      0       0      23        0.0%
BITBANK8           100      0       0      20        0.0%
BANK8              100      0       0      21        0.0%
BITBANK7           100      0       0      18        0.0%
BANK7              100      0       0      19        0.0%
BITBANK6           100      0       0      16        0.0%
BANK6              100      0       0      17        0.0%
BITBANK5           100      0       0      14        0.0%
BANK5              100      0       0      15        0.0%
BITBANK4           100      0       0      12        0.0%
BANK4              100      0       0      13        0.0%
BITBANK3           100      0       0      10        0.0%
BANK3              100      0       0      11        0.0%
BITBANK2           100      0       0       8        0.0%
BANK2              100      0       0       9        0.0%
BITBANK1           100      0       0       6        0.0%
BANK1              100     12      12       7        7.0%
BITBANK15           80      0       0      34        0.0%
BANK15              80      0       0      35        0.0%
BITBANK0            80      0       0       4        0.0%
BANK0               80     19      7F       5       99.2%
BITCOMRAM           7E      0       0       0        0.0%
COMRAM              7E     46      65       1       80.2%
BITBIGSFRhlhhhl     18      0       0      37        0.0%
BITBIGSFRhh          D      0       0      36        0.0%
BITBIGSFRlllhh       6      0       0      44        0.0%
BITBIGSFRhlhhhl      5      0       0      38        0.0%
BITBIGSFRllhllh      4      0       0      41        0.0%
BITBIGSFRllllh       4      0       0      45        0.0%
BITBIGSFRllhllh      4      0       0      42        0.0%
BITBIGSFRlllll       4      0       0      46        0.0%
BITBIGSFRllhllh      1      0       0      40        0.0%
BITBIGSFRhlhhhl      1      0       0      39        0.0%
BITBIGSFRllhlll      1      0       0      43        0.0%
BIGSFR               0      0       0     200        0.0%
BITSFR               0      0       0     200        0.0%
SFR                  0      0       0     200        0.0%
STACK                0      0       0       2        0.0%
NULL                 0      0       0       0        0.0%
ABS                  0      0      F6      47        0.0%
DATA                 0      0      F6       3        0.0%
CODE                 0      0       0       0        0.0%


Microchip Technology PIC18 Macro Assembler V2.41 build 20230208172133 
Symbol Table                                                                                   Tue Jul 25 22:03:07 2023

                                 ??_InterruptManager 0010                                         ___fldiv@aexp 0040  
                                       ___fldiv@bexp 003F                                         ___fldiv@sign 0038  
                                    ?_lcd_send_4bits 0024                                          _SSPSTATbits 0FC7  
                                                 l74 2FD4                                                   l69 282C  
                          _USART_FramingErrorHandler 0049                                                  l121 2D7A  
                                                l114 2704                                                  l331 3338  
                                                l182 323A                                                  l270 2E1A  
                                                l176 30A8                                                  l274 2E76  
                                                l179 3270                                                  l713 3040  
                                                l673 24B0                                                  l692 25DC  
                          _RB5_InterruptHandler_HIGH 00A0                                      __end_of_ADC_ISR 343E  
                  __end_of_USART_ASYNCRONOUS_RX_Init 2C38                  __end_of_lcd_4bit_send_enable_signal 3272  
                        _lcd_4bit_send_enable_signal 323C                    __end_of_USART_ASYNCRONOUS_TX_Init 2CEC  
                                led_initialize@F3048 005E                                                  prod 0FF3  
                              relay_initialize@F3042 005A                                                  tosl 0FFD  
         USART_Asynchronous_ReadByte_NonBlocking@ret 0003                                                  wreg 0FE8  
                                       ?_led_turn_on 000A                          lcd_send_4bits@_data_command 0026  
                                    __end_of_RB4_ISR 33BC                                      __end_of_RB5_ISR 33A2  
                                    __end_of_RB6_ISR 3388                                      __end_of_RB7_ISR 336E  
  _MSSP_I2C_Report_Receive_Overflow_InterruptHandler 00AC                                         ___fltol@exp1 0023  
                                               l2202 21B8                                                 l2204 2018  
                                               l2213 205E                                                 l2150 16CC  
                                               l1510 132A                                                 l2215 20D6  
                                               l2207 1FDC                                                 l1511 13DE  
                                               l2216 20C4                                                 l1513 1526  
                                               l1505 1052                                                 l1522 2CEA  
                                               l1507 1108                                                 l1611 3318  
                                               l2148 1718                                                 l1508 11BE  
                                               l1612 3318                                                 l2165 1832  
                                               l2157 19E8                                                 l2149 1706  
                                               l1509 1274                                                 l1526 2CEA  
                                               l2174 1902                                                 l1606 31B2  
                                               l1535 2C36                                                 l2175 18F0  
                                               l1463 31D0                                                 l1617 3410  
                                               l1465 3204                                                 l2282 22A8  
                                               l1539 2C36                                                 l2275 2210  
                                               l2278 236C                                                 l6000 271C  
                                               l2289 2304                                                 l6010 2748  
                                               l6002 2724                                                 l6020 2794  
                                               l6012 2764                                                 l6004 2744  
                                               l1917 2A54                                                 l6030 27E8  
                                               l6022 27B2                                                 l6014 2766  
                                               l6032 27F8                                                 l6024 27B8  
                                               l6016 2776                                                 l5410 24F2  
                                               l5402 24B2                                                 l6034 2808  
                                               l6026 27C8                                                 l6018 2784  
                                               l6050 261C                                                 l6042 25DE  
                                               l5412 2554                                                 l5404 24B6  
                                               l5500 2F64                                                 l6036 2818  
                                               l6028 27D8                                                 l6060 263E  
                                               l6044 25E2                                                 l5430 2384  
                                               l5406 24C8                                                 l5502 2F64  
                                               l6038 282A                                                 l6070 2690  
                                               l6062 264E                                                 l6046 25F4  
                                               l5440 246C                                                 l5432 23A6  
                                               l5416 25B0                                                 l5408 24EA  
                                               l5504 2F76                                                 l5520 2D1A  
                                               l5512 2CEC                                                 l6080 26E0  
                                               l6072 26A0                                                 l6064 265C  
                                               l6056 2620                                                 l6048 25FC  
                                               l8000 18E8                                                 l5434 23AE  
                                               l5442 24AE                                                 l5426 236E  
                                               l5418 25DA                                                 l5450 3042  
                                               l5506 2F7E                                                 l5530 2D5A  
                                               l5514 2CF0                                                 l6082 26F0  
                                               l6074 26B0                                                 l6066 266C  
                                               l6058 263C                                                 l8010 1966  
                                               l5436 2410                                                 l5428 2372  
                                               l5452 3042                                                 l5508 2FD2  
                                               l5532 2D6A                                                 l5516 2D02  
                                               l6076 26C0                                                 l6068 268A  
                                               l6084 2702                                                 l6260 332C  
                                               l8020 19AC                                                 l8004 1912  
                                               l8012 1968                                                 l8100 1F90  
                                               l5470 326E                                                 l5462 323C  
                                               l5454 3058                                                 l5526 2D1E  
                                               l5534 2D78                                                 l5518 2D0A  
                                               l6078 26D0                                                 l8030 19D6  
                                               l8022 19BA                                                 l8014 1978  
                                               l8006 191E                                                 l8110 1FDA  
                                               l8102 1FA0                                                 l5464 323C  
                                               l5456 3070                                                 l5480 3222  
                                               l5528 2D58                                                 l6256 3320  
                                               l6360 2E54                                                 l6352 2DFC  
                                               l8032 19D8                                                 l8024 19C0  
                                               l8016 1988                                                 l8008 192C  
                                               l8120 2028                                                 l8112 1FE6  
                                               l8104 1FA8                                                 l8040 1E3A  
                                               l8200 29F4                                                 l5490 2FE8  
                                               l5466 3250                                                 l5458 308A  
                                               l5482 3238                                                 l5474 3206  
                                               l6258 3320                                                 l6362 2E56  
                                               l6354 2E00                                                 l8026 19C2  
                                               l8018 19A8                                                 l8122 203E  
                                               l8130 206E                                                 l8114 2004  
                                               l8106 1FB8                                                 l8050 1E6E  
                                               l8042 1E3C                                                 l8210 2A24  
                                               l5492 300A                                                 l5468 3258  
                                               l5476 3206                                                 l6364 2E68  
                                               l6356 2E12                                                 l8300 2C38  
                                               l8028 19C8                                                 l8132 207C  
                                               l8124 2044                                                 l8116 2006  
                                               l8108 1FCC                                                 l8060 1EA0  
                                               l8044 1E4C                                                 l8052 1E76  
                                               l8036 1E20                                                 l8212 2A34  
                                               l8220 21CC                                                 l5494 3012  
                                               l5486 2FD6                                                 l5478 321A  
                                               l6358 2E1E                                                 l6366 2E74  
                                               l8310 2CA8                                                 l8302 2C52  
                                               l8142 20E6                                                 l8150 212E  
                                               l8134 2080                                                 l8126 204E  
                                               l8118 2016                                                 l8070 1ED4  
                                               l8062 1EA2                                                 l8054 1E86  
                                               l8046 1E5C                                                 l8038 1E2C  
                                               l8214 2A44                                                 l8206 2A08  
                                               l8230 224A                                                 l8222 21DA  
                                               l5496 303E                                                 l5488 2FD6  
                                               l8320 2B5C                                                 l8312 2CAA  
                                               l8304 2C54                                                 l8160 2198  
                                               l8152 2148                                                 l8144 20F2  
                                               l8136 208E                                                 l8128 205C  
                                               l8080 1F1A                                                 l8064 1EB2  
                                               l8072 1EDC                                                 l8056 1E8C  
                                               l8048 1E6C                                                 l8208 2A14  
                                               l8240 229E                                                 l8232 2252  
                                               l8224 2220                                                 l8330 2BF4  
                                               l8322 2B76                                                 l8314 2CC4  
                                               l8306 2C82                                                 l8162 21A6  
                                               l8154 215E                                                 l8146 2100  
                                               l8138 20BC                                                 l8090 1F42  
                                               l8082 1F1E                                                 l8074 1EEC  
                                               l8066 1EC2                                                 l8058 1E92  
                                               l8250 2314                                                 l8242 22DA  
                                               l8234 225E                                                 l8226 2236  
                                               l8218 21BC                                                 l8332 2BF6  
                                               l8324 2B78                                                 l8316 2CCA  
                                               l8308 2C8E                                                 l8164 21AC  
                                               l8156 2178                                                 l8148 212A  
                                               l8076 1F02                                                 l8068 1ED2  
                                               l8180 297A                                                 l8260 235C  
                                               l8252 2318                                                 l8244 22E6  
                                               l8236 2290                                                 l8340 31B4  
                                               l6590 340C                                                 l8334 2C10  
                                               l8326 2BCE                                                 l8318 2CE4  
                                               l8166 21AE                                                 l8158 2194  
                                               l8094 1F56                                                 l8078 1F12  
                                               l8086 1F32                                                 l8190 29C8  
                                               l8182 29A4                                                 l8174 2950  
                                               l8254 233C                                                 l8246 22F4  
                                               l8238 2292                                                 l8270 110E  
                                               l8350 31FC                                                 l8342 31B4  
                                               l8336 2C16                                                 l8328 2BDA  
                                               l8096 1F70                                                 l8088 1F42  
                                               l8184 29A6                                                 l8176 2966  
                                               l8256 234C                                                 l8248 2312  
                                               l8280 12CC                                                 l8272 1160  
                                               l8264 103C                                                 l8352 3202  
                                               l8344 31C8                                                 l8360 316C  
                                               l8338 2C30                                                 l8098 1F80  
                                               l8186 29B6                                                 l8258 235A  
                                               l8282 132E                                                 l8274 11C4  
                                               l8266 1058                                                 l8290 1492  
                                               l8346 31D6                                                 l8370 319C  
                                               l8362 3174                                                 l6588 340C  
                                               l7900 1652                                                 l8196 29E0  
                                               l8188 29BA                                                 l8284 1380  
                                               l8276 1216                                                 l8292 14E8  
                                               l8268 10AA                                                 l8348 31FA  
                                               l8372 319E                                                 l8364 317C  
                                               l8356 3162                                                 l8460 32F8  
                                               l7910 1666                                                 l7902 1656  
                                               l8198 29EA                                                 l8286 13E2  
                                               l8278 127A                                                 l8374 31A0  
                                               l8366 3198                                                 l8358 3162  
                                               l8462 32FC                                                 l7920 16C4  
                                               l7904 165A                                                 l7912 166A  
                                               l7840 1546                                                 l8288 1434  
                                               l8376 31A2                                                 l8368 319A  
                                               l8464 3300                                                 l7930 16FA  
                                               l7922 16DA                                                 l7914 166E  
                                               l7906 165E                                                 l7842 1556  
                                               l7850 1580                                                 l7834 1528  
                                               l8378 31A4                                                 l8466 330C  
                                               l8458 32F8                                                 l8580 25C4  
                                               l5996 2706                                                 l7940 174A  
                                               l7932 1704                                                 l7924 16E6  
                                               l7916 1698                                                 l7908 1662  
                                               l7860 15B0                                                 l7852 1590  
                                               l7844 1566                                                 l7836 1536  
                                               l8582 2498                                                 l5998 270A  
                                               l7950 1786                                                 l7942 175A  
                                               l7934 1726                                                 l7926 16EA  
                                               l7918 16B4                                                 l7870 15F0  
                                               l7862 15BE                                                 l7854 1596  
                                               l7846 1576                                                 l7838 1544  
                                               l7960 17CC                                                 l7952 1794  
                                               l7944 1768                                                 l7936 1736  
                                               l7928 16F8                                                 l7880 162A  
                                               l7872 15F2                                                 l7864 15C0  
                                               l7856 15A8                                                 l7848 1578  
                                               l7970 1848                                                 l7962 1800  
                                               l7954 1796                                                 l7946 1776  
                                               l7890 163E                                                 l7882 162E  
                                               l7866 15D0                                                 l7874 15FA  
                                               l7858 15AA                                                 l8578 14B2  
                                               l7980 1884                                                 l7972 1858  
                                               l7964 1802                                                 l7956 17A0  
                                               l7948 1782                                                 l7892 1642  
                                               l7884 1632                                                 l7876 160A  
                                               l7868 15E0                                                 l7990 18B0  
                                               l7982 1886                                                 l7966 1812  
                                               l7958 17A6                                                 l7894 1646  
                                               l7886 1636                                                 l7878 161C  
                                               l7984 1894                                                 l7976 186C  
                                               l7992 18B2                                                 l7968 1822  
                                               l7896 164A                                                 l7888 163A  
                                               l7986 189C                                                 l7978 1876  
                                               l7994 18C0                                                 l7898 164E  
                                               l7996 18C4                                                 l7988 18A0  
                                               l7998 18D2                                                 STR_1 1037  
                                               STR_4 1025                                                 STR_5 1011  
                                               STR_6 102E                                                 STR_7 101B  
                 lcd_8bit_send_command@l_pin_counter 002F                                                 _LATA 0F89  
                                               _LATB 0F8A                                                 _LATC 0F8B  
                                               u4000 23A6                                                 _LATD 0F8C  
                                               u4001 23A2                                                 _LATE 0F8D  
                                               u4100 2D6A                                                 u4101 2D66  
                                               u4030 2484                                                 u4014 23CE  
                                               u4031 247E                                                 u4015 23CA  
                                               u4040 2486                                                 u4024 2430  
                                               u4025 242C                                                 u4050 2FE8  
                                               u4051 2FE4                                                 u4060 300A  
                                               u4061 3006                                                 u4070 2F76  
                                               u4071 2F72                                                 u4080 2D02  
                                               u4081 2CFE                                                 u4094 2D48  
                                               u4095 2D44                                                 u5240 2E12  
                                               u5241 2E0E                                                 u7100 1544  
                                               u7101 1540                                                 u7110 1556  
                                               u5255 2E66                                                 u7111 1552  
                                               u7200 16B0                                                 u7120 1566  
                                               u5257 2E68                                                 u7201 16AA  
                                               u7121 1562                                                 u7210 16B2  
                                               u7130 15A8                                                 u7131 15A4  
                                               u7300 17CC                                                 u7220 16DA  
                                               u7140 15BE                                                 u7301 17C8  
                                               u7221 16D6                                                 u7141 15BA  
                                               u3950 24C8                                                 u7310 1812  
                                               u7230 16F8                                                 u7150 15D0  
                                               u3951 24C4                                                 u7311 180E  
                                               u7231 16F4                                                 u7151 15CC  
                                               u3960 24EA                                                 u7400 18FE  
                                               u7320 1848                                                 u7240 1718  
                                               u7160 15E0                                                 u3961 24E6  
                                               u7401 18FA                                                 u7321 1844  
                                               u7241 1714                                                 u7161 15DC  
                                               u7410 1912                                                 u7330 1858  
                                               u7250 1726                                                 u7170 161C  
                                               u8107 2672                                                 u7411 190E  
                                               u7331 1854                                                 u7251 1722  
                                               u7171 1618                                                 u7420 192C  
                                               u7340 1884                                                 u7260 1736  
                                               u7180 162A                                                 u7500 1E4C  
                                               u8117 268C                                                 u7421 1928  
                                               u7341 1880                                                 u7261 1732  
                                               u7181 1626                                                 u7501 1E48  
                                               u3990 2384                                                 u3974 2512  
                                               u4950 271C                                                 u7430 1966  
                                               u7350 1894                                                 u7270 1768  
                                               u7190 1698                                                 u7510 1E5C  
                                               u3991 2380                                                 u3975 250E  
                                               u4951 2718                                                 u8127 321C  
                                               u7431 1962                                                 u7351 1890  
                                               u7271 1764                                                 u7191 1694  
                                               u7511 1E58                                                 u3984 2574  
                                               u4960 2776                                                 u7440 1978  
                                               u7360 18B0                                                 u7280 1776  
                                               u7600 2028                                                 u7520 1EA0  
                                               u3985 2570                                                 u8137 277C  
                                               u4961 2772                                                 u7441 1974  
                                               u7361 18AC                                                 u7281 1772  
                                               u7601 2024                                                 u7521 1E9C  
                                               u4970 25F4                                                 u7450 1988  
                                               u7370 18C0                                                 u7290 1794  
                                               u7610 203E                                                 u7530 1EB2  
                                               u8147 279A                                                 u4971 25F0  
                                               u7451 1984                                                 u7371 18BC  
                                               u7291 1790                                                 u7611 203A  
                                               u7531 1EAE                                                 u4980 264E  
                                               u7460 19A8                                                 u7380 18D2  
                                               u7700 2178                                                 u7620 205C  
                                               u7540 1EC2                                                 u8157 27B4  
                                               u4981 264A                                                 u7461 19A4  
                                               u7381 18CE                                                 u7701 2174  
                                               u7621 2058                                                 u7541 1EBE  
                                               u7470 19BA                                                 u7390 18E8  
                                               u7710 21A6                                                 u7630 207C  
                                               u7550 1F02                                                 u8167 3252  
                                               u7471 19B6                                                 u7391 18E4  
                                               u7711 21A2                                                 u7631 2078  
                                               u7551 1EFE                                                 u7480 19D6  
                                               u7640 208E                                                 u7560 1F42  
                                               u7720 2966                                                 u7800 21DA  
                                               u8097 2654                                                 u7481 19D2  
                                               u7641 208A                                                 u7561 1F3E  
                                               u7721 2962                                                 u7801 21D6  
                                               u7650 20BC                                                 u7570 1FB8  
                                               u7490 1E3A                                                 u7730 299A  
                                               u7810 2236                                                 u7651 20B8  
                                               u7571 1FB4                                                 u7491 1E36  
                                               u7811 2232                                                 u7900 2C82  
                                               u7660 20D2                                                 u7580 1FDA  
                                               u7740 29C8                                                 u7820 228C  
                                               u7901 2C7E                                                 u7661 20CE  
                                               u7581 1FD6                                                 u7741 29C4  
                                               u7821 2288                                                 u7910 2CA8  
                                               u7670 20E6                                                 u7590 2004  
                                               u7750 29DC                                                 u7830 22D6  
                                               u7911 2CA4                                                 u7671 20E2  
                                               u7591 2000                                                 u7751 29D8  
                                               u7735 2990                                                 u7831 22D2  
                                               u7920 2CC4                                                 u7680 2100  
                                               u7760 2A04                                                 u7840 22F4  
                                               u7921 2CC0                                                 u7681 20FC  
                                               u7761 2A00                                                 u7841 22F0  
                                               u7930 2CE4                                                 u7690 2148  
                                               u7770 2A24                                                 u7850 2304  
                                               u7931 2CE0                                                 u7691 2144  
                                               u7771 2A20                                                 u7851 2300  
                                               u7940 2B76                                                 u7780 2A34  
                                               u7860 2312                                                 u7941 2B72  
                                               u7781 2A30                                                 u7861 230E  
                                               u7950 2BCE                                                 u7870 234C  
                                               u7790 21CC                                                 u7951 2BCA  
                                               u7871 2348                                                 u7791 21C8  
                                               u7960 2BF4                                                 u7880 235A  
                                               u7961 2BF0                                                 u7881 2356  
                                               u7970 2C10                                                 u7890 2C52  
                                               u7971 2C0C                                                 u7891 2C4E  
                                               u7980 2C30                                                 u7981 2C2C  
                                               u7990 31C8                                                 u7991 31C4  
                                               _TMR2 0FCC                              ??_application_intialize 0036  
                      ??_lcd_4bit_send_enable_signal 0026                  fp__USART_OverrunDefaultErrorHandler 0000  
           __end_of_USART_OverrunDefaultErrorHandler 3418                   ??_USART_OverrunDefaultErrorHandler 0001  
                  ?_USART_OverrunDefaultErrorHandler 0001                     _USART_OverrunDefaultErrorHandler 3412  
                           _RB4_InterruptHandler_LOW 00A2                                                 _led1 0065  
                                               _led2 0064                                                 _main 32F8  
                                   __end_of_CCP1_ISR 343A                                     __end_of_CCP2_ISR 3436  
                           _RB7_InterruptHandler_LOW 0096                                                 fsr2h 0FDA  
                                               indf2 0FDF                                                 fsr1l 0FE1  
                                               fsr2l 0FD9                                                 btemp 0066  
                             __end_of_led_initialize 2E78                                                 prodh 0FF4  
                                               prodl 0FF3                                                 start 000E  
                                    ___fldiv@new_exp 0039                                        ?_led_turn_off 000A  
                      __end_of_lcd_8bit_send_command 2D7C                                         ___param_bank 0000  
                              _lcd_4bit_send_command 2F64                                 _gpio_pin_write_logic 24B2  
                              lcd_4bit_intialize@lcd 002C                                lcd_4bit_intialize@ret 0031  
                                   __end_of_INT0_ISR 3432                                     __end_of_INT1_ISR 342E  
                                   __end_of_INT2_ISR 342A                                        ___fltol@sign1 0022  
                                    __end_of___fladd 19EA                                                ?_main 0001  
                                    __end_of___fldiv 21BA                                                _EEADR 0FA9  
                                    __end_of___fltol 2A56                                                i2l281 2EEC  
                                              i2l284 2F04                                                i2l277 2E8E  
                                              i2l544 3434                                                i2l288 2F62  
                                              i2l457 343C                                                i2l539 3438  
                                              i2l692 294E                                                i2l933 3430  
                                              i2l861 3420                                                i2l943 3428  
                                              i2l938 342C                                                i2l866 3424  
                                              i2l954 33BA                                                i2l965 33A0  
                                              i2l976 3386                                                i2l987 336C  
                                              _RCREG 0FAE                                  relay_turn_off@F3052 0058  
                                              _TMR0H 0FD7                                                _TMR1H 0FCF  
                                              _TMR0L 0FD6                                                _TMR1L 0FCE  
                                              _TMR3H 0FB3                                                _TMR3L 0FB2  
                                              _SPBRG 0FAF                                                _PORTA 0F80  
                                              _PORTB 0F81                                                _PORTC 0F82  
                                              _PORTD 0F83                                                _PORTE 0F84  
                                              _TRISA 0F92                                                _TRISB 0F93  
                                              _TRISC 0F94                                                _TRISD 0F95  
                                              _TRISE 0F96                                                _TXREG 0FAD  
                                   __end_of_TMR0_ISR 33FE                                     __end_of_TMR1_ISR 33F2  
                                   __end_of_TMR2_ISR 3406                                     __end_of_TMR3_ISR 33E6  
                                              _lcd_1 00E0                                                _lcd_2 00D6  
                                              pclath 0FFA                                                pclatu 0FFB  
                                              tablat 0FF5         USART_Asynchronous_ReadByte_NonBlocking@_data 0001  
                                              ttemp5 0067                                                ttemp6 006A  
                                              ttemp7 006E                                                status 0FD8  
                                              wtemp8 0067                                      ?_led_initialize 0028  
                                     ??_led_turn_off 000C                                      __initialization 30AA  
                                       __end_of_main 3320                                ?_gpio_pin_write_logic 001A  
                        i2gpio_pin_write_logic@logic 0003                                            ??_ADC_ISR 0001  
                      __end_of_usart_module_int_init 31B4                                        _lat_registers 00C2  
                                             ??_main 0047      _USART_RxDefaultInterruptHandler@hal_usart$F3870 004B  
    _USART_TxDefaultInterruptHandler@hal_usart$F3869 004D                                        __activetblptr 0003  
                              _TMR3_InterruptHandler 008E                                     led_turn_on@F3053 005D  
                                          ??_RB4_ISR 0001                                            ??_RB5_ISR 0001  
                                          ??_RB6_ISR 0001                                            ??_RB7_ISR 0001  
         USART_Asynchronous_WriteString_Blocking@ret 0008                                               _ADRESH 0FC4  
                                             _EEADRH 0FAA                                               _ADRESL 0FC3  
                                             _EEDATA 0FA8                                               _CCPR1H 0FBF  
                                             _CCPR2H 0FBC                                               _CCPR1L 0FBE  
                                             _CCPR2L 0FBB                                               _EECON2 0FA7  
                                             i2l1200 1DD4                                               i2l1203 1DF4  
                                             i2l1160 1A34                                               i2l1170 1B40  
                                             i2l1162 1A54                                               i2l1316 33F0  
                                             i2l1180 1C94                                               i2l1172 1B84  
                                             i2l1164 1A74                                               i2l1413 33E4  
                                             i2l1501 3160                                               i2l1246 33FC  
                                             i2l1190 1D34                                               i2l1182 1CB4  
                                             i2l1174 1BC8                                               i2l1166 1AB8  
                                             i2l1192 1D54                                               i2l1184 1CD4  
                                             i2l1176 1C0C                                               i2l1168 1AFC  
                                             i2l3114 3418                                               i2l1194 1D74  
                                             i2l1186 1CF4                                               i2l1178 1C50  
                                             i2l1603 2B5A                                               i2l3116 3418  
                                             i2l1196 1D94                                               i2l1188 1D14  
                                             i2l3118 341A                                               i2l1198 1DB4  
                                             i2l1368 3404                                               i2l1480 32F4  
                                             i2l1544 32CC                                               i2l1481 32F6  
                                             i2l1553 2DFA                                               i2l1490 3352  
                                             i2l1484 341C                                               i2l3342 343A  
                                             i2l1590 3416                                               i2l1487 333C  
                                             i2l1489 334A                                               i2l1593 33CA  
                                             i2l1587 33D8                                               i2l3196 3412  
                                             i2l6100 2EDC                                               i2l6110 2F08  
                                             i2l6200 32E8                                               i2l6112 2F3E  
                                             i2l6104 2EEE                                               i2l6202 32F0  
                                             i2l6210 3144                                               i2l6114 2F40  
                                             i2l6106 2EEE                                               i2l6212 3148  
                                             i2l6116 2F52                                               i2l6108 2F00  
                                             i2l6300 2AE0                                               i2l6214 315E  
                                             i2l6206 310C                                               i2l6302 2AEC  
                                             i2l6400 342A                                               i2l6208 3124  
                                             i2l6304 2B04                                               i2l6090 2E78  
                                             i2l6306 2B20                                               i2l6420 33BA  
                                             i2l6412 33A4                                               i2l5540 334C  
                                             i2l6092 2E8A                                               i2l6406 3426  
                                             i2l6414 33A6                                               i2l6510 33F2  
                                             i2l5542 3350                                               i2l6094 2E92  
                                             i2l6440 3370                                               i2l6512 33F4  
                                             i2l6520 33E6                                               i2l6096 2EC8  
                                             i2l6088 2E78                                               i2l6280 33BC  
                                             i2l7400 1AB2                                               i2l6370 3436  
                                             i2l6434 33A0                                               i2l6426 338A  
                                             i2l6442 3372                                               i2l6514 33F8  
                                             i2l6522 33E8                                               i2l6530 33FE  
                                             i2l6194 32CE                                               i2l5538 333C  
                                             i2l6098 2ECA                                               i2l6290 2A80  
                                             i2l6282 2A56                                               i2l7410 1AF6  
                                             i2l7402 1AC6                                               i2l6428 338C  
                                             i2l6524 33EC                                               i2l6540 33E0  
                                             i2l6196 32CE                                               i2l6292 2A98  
                                             i2l6284 2A56                                               i2l7500 1D82  
                                             i2l7420 1B3A                                               i2l7412 1B0A  
                                             i2l7404 1AD4                                               i2l6382 341E  
                                             i2l6462 336C                                               i2l6454 3356  
                                             i2l6198 32DC                                               i2l6278 33CC  
                                             i2l6294 2AA4                                               i2l6286 2A64  
                                             i2l6550 32B4                                               i2l7510 1DD0  
                                             i2l7502 1D90                                               i2l7430 1B7E  
                                             i2l7422 1B4E                                               i2l7414 1B18  
                                             i2l7406 1AE2                                               i2l6376 3432  
                                             i2l6448 3386                                               i2l6456 3358  
                                             i2l6536 33DA                                               i2l6296 2ABC  
                                             i2l6288 2A74                                               i2l6560 2DD0  
                                             i2l6552 2D7C                                               i2l7512 1DE2  
                                             i2l7504 1DA2                                               i2l7440 1BC2  
                                             i2l7432 1B92                                               i2l7424 1B5C  
                                             i2l7416 1B26                                               i2l7408 1AF2  
                                             i2l6394 342E                                               i2l6538 33DC  
                                             i2l6298 2AC8                                               i2l6562 2DE2  
                                             i2l6554 2D8E                                               i2l6546 32A0  
                                             i2l7514 1DF0                                               i2l7506 1DB0  
                                             i2l7450 1C06                                               i2l7442 1BD6  
                                             i2l7434 1BA0                                               i2l7426 1B6A  
                                             i2l7418 1B36                                               i2l6388 3422  
                                             i2l6556 2DA6                                               i2l6548 32A2  
                                             i2l7508 1DC2                                               i2l7460 1C4A  
                                             i2l7452 1C1A                                               i2l7444 1BE4  
                                             i2l7436 1BAE                                               i2l7428 1B7A  
                                             i2l7380 1A22                                               i2l6558 2DB8  
                                             i2l7470 1C8E                                               i2l7462 1C5E  
                                             i2l7454 1C28                                               i2l7446 1BF2  
                                             i2l7438 1BBE                                               i2l7390 1A70  
                                             i2l7382 1A30                                               i2l7480 1CE2  
                                             i2l7472 1CA2                                               i2l7464 1C6C  
                                             i2l7456 1C36                                               i2l7448 1C02  
                                             i2l7392 1A82                                               i2l7384 1A42  
                                             i2l7490 1D30                                               i2l7482 1CF0  
                                             i2l7474 1CB0                                               i2l7466 1C7A  
                                             i2l7458 1C46                                               i2l7394 1A90  
                                             i2l7386 1A50                                               i2l7378 1A14  
                                             i2l5980 2840                                               i2l7492 1D42  
                                             i2l7484 1D02                                               i2l7476 1CC2  
                                             i2l7468 1C8A                                               i2l7396 1A9E  
                                             i2l7388 1A62                                               i2l5990 2924  
                                             i2l5982 2862                                               i2l7494 1D50  
                                             i2l7486 1D10                                               i2l7478 1CD0  
                                             i2l7398 1AAE                                               i2l5984 2866  
                                             i2l5976 282E                                               i2l7496 1D62  
                                             i2l7488 1D22                                               i2l5986 28C8  
                                             i2l5978 282E                                               i2l7498 1D70  
                                             i2l8584 2B34                                               i2l8586 2938  
                                             _SPBRGH 0FB0                                               _SSPADD 0FC8  
                                             _SSPBUF 0FC9                                     __end_of___xxtofl 236E  
                    ??_USART_Asynchronous_Initialize 0047                         ?_USART_Baud_Rate_Calculation 0045  
                             ?_lcd_4bit_send_command 0028                                            ??___fladd 0041  
                                          ??___fldiv 0030                                            ??___fltol 001E  
                                             clear_0 30F0                                               clear_1 30FC  
                              led_initialize@pin_obj 002C                                               isa$std 0001  
            gpio_pin_direction_intialize@_pin_config 001A                          ??_USART_ASYNCRONOUS_RX_Init 001C  
                                          ?_CCP1_ISR 0001                                         __pdataCOMRAM 0060  
                                          ?_CCP2_ISR 0001                          ??_USART_ASYNCRONOUS_TX_Init 001C  
                                       __mediumconst 0000                                               tblptrh 0FF7  
                                             tblptrl 0FF6                                               tblptru 0FF8  
                                 _receive_usart_data 005F                                         ___xxtofl@arg 0024  
                                       ___xxtofl@exp 0023                                         ___xxtofl@val 001A  
                    ??_USART_Asynchronous_Restart_RX 0001                                           __accesstop 0080  
                            __end_of__initialization 3102                                            ?_INT0_ISR 0001  
                                          ?_INT1_ISR 0001                                            ?_INT2_ISR 0001  
                                      ___rparam_used 0001      USART_Baud_Rate_Calculation@Baud_Rate_Temp_Value 00F4  
                                         ___fltol@f1 001A                                     ??_lcd_send_4bits 0027  
                                  led_initialize@led 0028                                    led_initialize@ret 002B  
                      ??_USART_Baud_Rate_Calculation 00F2                                    RB5_ISR@RB5_Source 0001  
                             ??_gpio_pin_write_logic 001D                                       __pcstackCOMRAM 0001  
                     usart_module_int_init@usart_obj 0100                                         __pidataBANK0 3272  
                                          ?_TMR0_ISR 0001                                            ?_TMR1_ISR 0001  
                                          ?_TMR2_ISR 0001                                            ?_TMR3_ISR 0001  
                           lcd_4bit_send_command@lcd 0028                             lcd_4bit_send_command@ret 002B  
                                 _lcd_8bit_intialize 25DE                                           ??_CCP1_ISR 0001  
                                         ??_CCP2_ISR 0001                                 __end_of_led_turn_off 2F64  
                                ?_lcd_8bit_intialize 0030                                           __pbssBANK0 0080  
                              _INT0_InterruptHandler 00AA                                           ??_INT0_ISR 0001  
                                         ??_INT1_ISR 0001                                           ??_INT2_ISR 0001  
                          _USART_ASYNCRONOUS_RX_Init 2B5C                        __end_of_application_intialize 3412  
                          _USART_ASYNCRONOUS_TX_Init 2C38                                 ??_lcd_8bit_intialize 0032  
                 fp__USART_TxDefaultInterruptHandler 0000              __end_of_USART_TxDefaultInterruptHandler 33CC  
                  ??_USART_TxDefaultInterruptHandler 0001                     ?_USART_TxDefaultInterruptHandler 0001  
                    _USART_TxDefaultInterruptHandler 33BC                __end_of_USART_Asynchronous_Initialize 3206  
                      _USART_Asynchronous_Initialize 31B4                                           ??_TMR0_ISR 0001  
                                         ??_TMR1_ISR 0001                                           ??_TMR2_ISR 0001  
                                         ??_TMR3_ISR 0001                                    led_turn_off@F3058 005C  
             USART_FramingDefaultErrorHandler@_data_ 0004                                              _ADC_ISR 343A  
                                  RB7_ISR@RB7_Source 0001                                              _RB4_ISR 33A2  
                                            _RB5_ISR 3388                                              _RB6_ISR 336E  
                                            _RB7_ISR 3354                                            ?___xxtofl 001A  
                          _RB6_InterruptHandler_HIGH 009C                                        ?_MSSP_I2C_ISR 0001  
                               led_turn_toggle@F3063 005B                  __end_of_lcd_8bit_send_enable_signal 323C  
                        _lcd_8bit_send_enable_signal 3206                                     ??_led_initialize 002A  
                                         _btn_values 1001                       lcd_8bit_send_enable_signal@lcd 0024  
                     lcd_8bit_send_enable_signal@ret 0026                                       _tris_registers 00CC  
                           _RB6_InterruptHandler_LOW 009A                        ??_lcd_8bit_send_enable_signal 0026  
                                  ??_MSSP_I2C_BC_ISR 0001                                 _ADC_InterruptHandler 0055  
                                            __Hparam 0000                __end_of_USART_Asynchronous_Restart_RX 341E  
                      _USART_Asynchronous_Restart_RX 3418                                              __Lparam 0000  
                                _ecu_layer_intialize 3320                                              ___fladd 1528  
                              _lcd_8bit_send_command 2CEC                                              ___fldiv 1E20  
                                            ___fltol 2950                     _USART_Baud_Rate_Calculation$5135 00F8  
                                       __psmallconst 1000                           __end_of_gpio_pin_intialize 3042  
                                            __pcinit 30AA                                              __ramtop 1000  
                                            __ptext0 32F8                                              __ptext1 3162  
                                            __ptext2 31B4                                              __ptext3 103C  
                                            __ptext4 21BA                                              __ptext5 2950  
                                            __ptext6 1E20                                              __ptext7 1528  
                                            __ptext8 2C38                                              __ptext9 2B5C  
                                          _T0CONbits 0FD5                                            _T1CONbits 0FCD  
                                     ??_MSSP_I2C_ISR 0001                                            _T2CONbits 0FCA  
                                         ??___xxtofl 001E                                            _T3CONbits 0FB1  
                               ?_ecu_layer_intialize 0001                             ??i2_gpio_pin_write_logic 0004  
                                     _valid_usart_rx 0086                                       _valid_usart_tx 008A  
    __end_of_USART_Asynchronous_WriteString_Blocking 3162            ??_USART_Asynchronous_WriteString_Blocking 0006  
           ?_USART_Asynchronous_WriteString_Blocking 0002              _USART_Asynchronous_WriteString_Blocking 310C  
              lcd_8bit_intialize@l_data_pins_counter 0034                lcd_4bit_intialize@l_data_pins_counter 0030  
                                     __pintcode_body 19EA                                 end_of_initialization 3102  
                                  lcd_send_4bits@lcd 0024                                    lcd_send_4bits@ret 0027  
                                            int_func 19EA                           __end_of_lcd_4bit_intialize 282E  
                            ??_lcd_4bit_send_command 002B                                gpio_pin_intialize@ret 0027  
                                led_turn_off@pin_obj 000D                                            _RCSTAbits 0FAB  
                                            postdec1 0FE5                                              postdec2 0FDD  
                                            postinc0 0FEE                                              postinc2 0FDE  
         USART_Asynchronous_WriteByte_Blocking@_data 0001                                _INT1_InterruptHandler 00A8  
                                          _PORTBbits 0F81                                     _InterruptManager 0008  
                      gpio_pin_intialize@_pin_config 0024                    USART_Baud_Rate_Calculation@_usart 0045  
                              _usart_module_int_init 3162                                          ___fladd@grs 00F1  
                              ??_ecu_layer_intialize 0036                 __end_of_gpio_pin_direction_intialize 24B2  
                       _gpio_pin_direction_intialize 236E                                        ___xxtofl@sign 0022  
                                          _TRISCbits 0F94                      USART_ASYNCRONOUS_RX_Init@_usart 001A  
                                        ___fldiv@grs 003B                                          ___fldiv@rem 0034  
                                      ?_USART_RX_ISR 0001                                        ?_USART_TX_ISR 0001  
                                        _CCP1CONbits 0FBD                                          _CCP2CONbits 0FBA  
                                          _TXSTAbits 0FAC                                         _led_turn_off 2EEE  
                                 relay_turn_on@F3047 0059                               ?_lcd_8bit_send_command 0027  
                      convert_uint16_to_string@F3198 0080                                          _BAUDCONbits 0FB8  
                                      __pidataCOMRAM 3406                                       _timer0_preload 0053  
                                     _timer1_preload 0051                                       _timer2_preload 0057  
                                start_initialization 30AA                                        ??_led_turn_on 000C  
                                     _timer3_preload 004F                         ?_lcd_4bit_send_enable_signal 0024  
                      ?_gpio_pin_direction_intialize 001A                  fp__USART_FramingDefaultErrorHandler 0000  
           __end_of_USART_FramingDefaultErrorHandler 33DA                   ??_USART_FramingDefaultErrorHandler 0004  
                  ?_USART_FramingDefaultErrorHandler 0001                     _USART_FramingDefaultErrorHandler 33CC  
                                     ??_USART_RX_ISR 0010                                       ??_USART_TX_ISR 0001  
                          _USART_OverrunErrorHandler 0047                     USART_Asynchronous_Initialize@ret 00FE  
                                    led_turn_off@led 000A                                 __end_of_MSSP_I2C_ISR 3422  
                                        __pdataBANK0 00B8                                             ?_ADC_ISR 0001  
                       lcd_4bit_send_command@command 002A                             lcd_8bit_send_command@lcd 0027  
                             ?_usart_module_int_init 0001                             lcd_8bit_send_command@ret 002E  
                                          ___fladd@a 00EA                                            ___fladd@b 00E6  
                                          ___fldiv@a 002C                                            ___fldiv@b 0028  
                                           ?_RB4_ISR 0001                                             ?_RB5_ISR 0001  
                                           ?_RB6_ISR 0001                                             ?_RB7_ISR 0001  
                                        __pbssCOMRAM 0047     _MSSP_I2C_Report_Write_Collision_InterruptHandler 00AE  
                                      __pcstackBANK0 00E6                                        __pcstackBANK1 0100  
                                    _MSSP_I2C_BC_ISR 3422                                  __end_of_led_turn_on 2EEE  
                              _INT2_InterruptHandler 00A6                   fp__USART_RxDefaultInterruptHandler 0000  
            __end_of_USART_RxDefaultInterruptHandler 2B5C                    ??_USART_RxDefaultInterruptHandler 000E  
                   ?_USART_RxDefaultInterruptHandler 0001                      _USART_RxDefaultInterruptHandler 2A56  
                    gpio_pin_direction_intialize@ret 0022         USART_Asynchronous_WriteString_Blocking@_data 0002  
                __end_of_USART_Baud_Rate_Calculation 1528                          _USART_Baud_Rate_Calculation 103C  
                              _TMR0_InterruptHandler 0094                                _application_intialize 340C  
                                          __pintcode 0008                                             ?___fladd 00E6  
                             i2_gpio_pin_write_logic 282E                      gpio_pin_write_logic@_pin_config 001A  
                  i2gpio_pin_write_logic@_pin_config 0001                                             ?___fldiv 0028  
                                           ?___fltol 001A                            gpio_pin_write_logic@logic 001C  
                                        __smallconst 1000                            _RB4_InterruptHandler_HIGH 00A4  
                                           _CCP1_ISR 3436                                             _CCP2_ISR 3432  
                          _RB7_InterruptHandler_HIGH 0098                  USART_Asynchronous_Initialize@_usart 00FC  
                                 _gpio_pin_intialize 2FD6                       ??_gpio_pin_direction_intialize 001C  
                           _RB5_InterruptHandler_LOW 009E                                             _INT0_ISR 342E  
                                           _INT1_ISR 342A                                             _INT2_ISR 3426  
                                           _RB4_Flag 0063                                             _RB5_Flag 0062  
                                           _RB6_Flag 0061                                             _RB7_Flag 0060  
                                  RB4_ISR@RB4_Source 0001                                  ?_gpio_pin_intialize 0024  
                           __end_of_InterruptManager 1E20                                             _PIE1bits 0F9D  
                                           _PIE2bits 0FA0                        __end_of_lcd_4bit_send_command 2FD6  
                                           i2u411_40 334A                                             i2u411_41 3346  
                                           i2u500_45 2EDA                                             i2u500_47 2EDC  
                                           i2u501_40 2F00                                             i2u501_41 2EFC  
                                           i2u502_45 2F50                                             i2u502_47 2F52  
                                           i2u513_40 32DC                                             i2u513_41 32D8  
                                           _PIR1bits 0F9E                                             i2u514_40 315E  
                                           i2u514_41 315A                                             _PIR2bits 0FA1  
                                           i2u540_48 2DE8                                             i2u533_40 32B4  
                                           i2u540_49 2DFA                                             i2u533_41 32B0  
                                           i2u526_40 33B6                                             i2u630_40 1A22  
                                           i2u526_41 33B2                                             i2u630_41 1A1E  
                                 led_turn_on@pin_obj 000D                                             i2u527_40 339C  
                                           i2u535_40 2D8E                                             i2u534_48 32BA  
                                           i2u631_40 1A30                                             i2u527_41 3398  
                                           i2u535_41 2D8A                                             i2u534_49 32CC  
                                           i2u631_41 1A2C                                             i2u528_40 3382  
                                           i2u640_40 1AC6                                             i2u632_40 1A42  
                                           i2u528_41 337E                                             i2u640_41 1AC2  
                                           i2u632_41 1A3E                                             i2u529_40 3368  
                                           i2u537_40 2DB8                                             i2u536_48 2D94  
                                           i2u641_40 1AD4                                             i2u633_40 1A50  
                                           i2u529_41 3364                                             i2u537_41 2DB4  
                                           i2u536_49 2DA6                                             i2u641_41 1AD0  
                                           i2u633_41 1A4C                                             i2u650_40 1B6A  
                                           i2u642_40 1AE2                                             i2u634_40 1A62  
                                           i2u650_41 1B66                                             i2u642_41 1ADE  
                                           i2u634_41 1A5E                                             i2u491_40 2840  
                                           i2u539_40 2DE2                                             i2u538_48 2DBE  
                                           i2u651_40 1B7A                                             i2u643_40 1AF2  
                                           i2u635_40 1A70                                             i2u491_41 283C  
                                           i2u539_41 2DDE                                             i2u538_49 2DD0  
                                           i2u651_41 1B76                                             i2u643_41 1AEE  
                                           i2u635_41 1A6C                                             i2u492_40 2862  
                                           i2u660_40 1C1A                                             i2u652_40 1B92  
                                           i2u644_40 1B0A                                             i2u636_40 1A82  
                                           i2u492_41 285E                                             i2u660_41 1C16  
                                           i2u652_41 1B8E                                             i2u644_41 1B06  
                                           i2u636_41 1A7E                                             i2u661_40 1C28  
                                           i2u653_40 1BA0                                             i2u645_40 1B18  
                                           i2u637_40 1A90                                             i2u661_41 1C24  
                                           i2u653_41 1B9C                                             i2u645_41 1B14  
                                           i2u637_41 1A8C                                             i2u493_44 2886  
                                           i2u493_45 2882                                             i2u670_40 1CC2  
                                           i2u662_40 1C36                                             i2u654_40 1BAE  
                                           i2u646_40 1B26                                             i2u638_40 1A9E  
                                           i2u670_41 1CBE                                             i2u662_41 1C32  
                                           i2u654_41 1BAA                                             i2u646_41 1B22  
                                           i2u638_41 1A9A                                             i2u494_44 28E8  
                                           i2u494_45 28E4                                             i2u671_40 1CD0  
                                           i2u663_40 1C46                                             i2u655_40 1BBE  
                                           i2u647_40 1B36                                             i2u639_40 1AAE  
                                           i2u671_41 1CCC                                             i2u663_41 1C42  
                                           i2u655_41 1BBA                                             i2u647_41 1B32  
                                           i2u639_41 1AAA                                             i2u680_40 1D62  
                                           i2u672_40 1CE2                                             i2u664_40 1C5E  
                                           i2u656_40 1BD6                                             i2u648_40 1B4E  
                                           i2u680_41 1D5E                                             i2u672_41 1CDE  
                                           i2u664_41 1C5A                                             i2u656_41 1BD2  
                                           i2u648_41 1B4A                                             i2u681_40 1D70  
                                           i2u673_40 1CF0                                             i2u665_40 1C6C  
                                           i2u657_40 1BE4                                             i2u649_40 1B5C  
                                           i2u681_41 1D6C                                             i2u673_41 1CEC  
                                           i2u665_41 1C68                                             i2u657_41 1BE0  
                                           i2u649_41 1B58                                             i2u682_40 1D82  
                                           i2u674_40 1D02                                             i2u666_40 1C7A  
                                           i2u658_40 1BF2                                             i2u682_41 1D7E  
                                           i2u674_41 1CFE                                             i2u666_41 1C76  
                                           i2u658_41 1BEE                                             i2u499_40 2E8A  
                                           i2u683_40 1D90                                             i2u675_40 1D10  
                                           i2u667_40 1C8A                                             i2u659_40 1C02  
                                           i2u499_41 2E86                                             i2u683_41 1D8C  
                                           i2u675_41 1D0C                                             i2u667_41 1C86  
                                           i2u659_41 1BFE                                             i2u684_40 1DA2  
                                           i2u676_40 1D22                                             i2u668_40 1CA2  
                                           i2u684_41 1D9E                                             i2u676_41 1D1E  
                                           i2u668_41 1C9E                                             i2u685_40 1DB0  
                                           i2u677_40 1D30                                             i2u669_40 1CB0  
                                           i2u685_41 1DAC                                             i2u677_41 1D2C  
                                           i2u669_41 1CAC                                             i2u686_40 1DC2  
                                           i2u678_40 1D42                                             i2u686_41 1DBE  
                                           i2u678_41 1D3E                                             i2u687_40 1DD0  
                                           i2u679_40 1D50                                             i2u687_41 1DCC  
                                           i2u679_41 1D4C                                             i2u688_40 1DE2  
                                           i2u688_41 1DDE                                             i2u689_40 1DF0  
                                           i2u689_41 1DEC                                             _TMR0_ISR 33F2  
                                           _TMR1_ISR 33E6                                             _TMR2_ISR 33FE  
                                           _TMR3_ISR 33DA                                 __end_of_USART_RX_ISR 2DFC  
                              lcd_8bit_intialize@lcd 0030                                 __end_of_USART_TX_ISR 32CE  
                                 _lcd_4bit_intialize 2706                                lcd_8bit_intialize@ret 0035  
                                         _ADCON0bits 0FC2                                           _ADCON1bits 0FC1  
                                         _ADCON2bits 0FC0                              __end_of_MSSP_I2C_BC_ISR 3426  
                               ??_gpio_pin_intialize 0026                                  ?_lcd_4bit_intialize 002C  
                   _MSSP_I2C_DefaultInterruptHandler 00B0                                          _led_turn_on 2E78  
                            gpio_pin_write_logic@ret 0023                      USART_ASYNCRONOUS_TX_Init@_usart 001A  
                                        _INTCON2bits 0FF1                                          _INTCON3bits 0FF0  
                                          copy_data0 30BE                                            copy_data1 30DE  
                            ??_lcd_8bit_send_command 002A                                           _EECON1bits 0FA6  
                             ?_application_intialize 0001                                 ??_lcd_4bit_intialize 002E  
                                     led_turn_on@led 000A                                             __Hrparam 0000  
                                           __Lrparam 0000      __end_of_USART_Asynchronous_ReadByte_NonBlocking 32F8  
          ??_USART_Asynchronous_ReadByte_NonBlocking 0003             ?_USART_Asynchronous_ReadByte_NonBlocking 0001  
            _USART_Asynchronous_ReadByte_NonBlocking 32CE                                    RB6_ISR@RB6_Source 0001  
                              _CCP1_InterruptHandler 00B6                          __end_of_ecu_layer_intialize 333A  
                                 __end_of_btn_values 1011                                _TMR1_InterruptHandler 0092  
                                           ___xxtofl 21BA                                         _MSSP_I2C_ISR 341E  
                                           __ptext10 2DFC                                             __ptext11 340C  
                                           __ptext20 2FD6                                             __ptext12 3320  
                                           __ptext21 24B2                                             __ptext13 25DE  
                                           __ptext30 282E                                             __ptext22 236E  
                                           __ptext14 2CEC                                             __ptext31 310C  
                                           __ptext15 3206                                             __ptext40 33F2  
                                           __ptext32 333A                                             __ptext24 32A0  
                                           __ptext16 2706                                             __ptext41 3354  
                                           __ptext33 3412                                             __ptext25 33BC  
                                           __ptext17 2F64                                             __ptext50 3432  
                                           __ptext42 336E                                             __ptext34 3418  
                                           __ptext26 2D7C                                             __ptext18 3042  
                                           __ptext51 3436                                             __ptext43 3388  
                                           __ptext35 33CC                                             __ptext27 2A56  
                                           __ptext19 323C                                             __ptext52 343A  
                                           __ptext44 33A2                                             __ptext36 32CE  
                                           __ptext28 2E78                                             __ptext53 0000  
                                           __ptext45 341E                                             __ptext37 33DA  
                                           __ptext29 2EEE                                             __ptext46 3422  
                                           __ptext38 33FE                                             __ptext47 3426  
                                           __ptext39 33E6                                             __ptext48 342A  
                                           __ptext49 342E                                             isa$xinst 0000  
                                           int$flags 0066        __end_of_USART_Asynchronous_WriteByte_Blocking 3354  
            ??_USART_Asynchronous_WriteByte_Blocking 0001               ?_USART_Asynchronous_WriteByte_Blocking 0001  
              _USART_Asynchronous_WriteByte_Blocking 333A                              ??_usart_module_int_init 0047  
                                     _lcd_send_4bits 3042                                     ?_MSSP_I2C_BC_ISR 0001  
                                         _INTCONbits 0FF2                       ?_USART_Asynchronous_Initialize 00FC  
USART_Asynchronous_WriteString_Blocking@char_counter 0009                         __end_of_gpio_pin_write_logic 25DE  
                       ?_lcd_8bit_send_enable_signal 0024                                             intlevel2 0000  
                     lcd_4bit_send_enable_signal@lcd 0024                       lcd_4bit_send_enable_signal@ret 0026  
                            ?i2_gpio_pin_write_logic 0001                               __end_of_lcd_send_4bits 30AA  
                     ?_USART_Asynchronous_Restart_RX 0001                           ?_USART_ASYNCRONOUS_RX_Init 001A  
                         ?_USART_ASYNCRONOUS_TX_Init 001A                                       _port_registers 00B8  
                                        _SSPCON1bits 0FC6                                          _SSPCON2bits 0FC5  
                                      ___fladd@signs 00EE                      CCP_Set_Compare_Mode_Value@F3106 00B2  
                              _CCP2_InterruptHandler 00B4                                         _USART_RX_ISR 2D7C  
                                       _USART_TX_ISR 32A0                         lcd_8bit_send_command@command 0029  
                                       ___fladd@aexp 00EF                                         ___fladd@bexp 00F0  
                     __end_ofi2_gpio_pin_write_logic 2950    USART_Asynchronous_WriteString_Blocking@str_length 0004  
                              _TMR2_InterruptHandler 0090                                    ?_InterruptManager 0001  
                         __end_of_lcd_8bit_intialize 2706                                       _led_initialize 2DFC  
